(dp1
S'output'
p2
S''
sS'layer'
p3
S'Framework'
p4
sS'code'
p5
S''
sS'snapshot'
p6
(dp7
S'exception'
p8
(dp9
S'__hash__'
p10
S"<method-wrapper '__hash__' of exceptions.NameError object>"
p11
sS'__setattr__'
p12
S"<method-wrapper '__setattr__' of exceptions.NameError object>"
p13
sS'__reduce_ex__'
p14
S'<built-in method __reduce_ex__ of exceptions.NameError object>'
p15
sS'__getslice__'
p16
S"<method-wrapper '__getslice__' of exceptions.NameError object>"
p17
sS'__getitem__'
p18
S"<method-wrapper '__getitem__' of exceptions.NameError object>"
p19
sS'__setstate__'
p20
S'<built-in method __setstate__ of exceptions.NameError object>'
p21
sS'__reduce__'
p22
S'<built-in method __reduce__ of exceptions.NameError object>'
p23
sS'__str__'
p24
S"<method-wrapper '__str__' of exceptions.NameError object>"
p25
sS'__format__'
p26
S'<built-in method __format__ of exceptions.NameError object>'
p27
sS'__getattribute__'
p28
S"<method-wrapper '__getattribute__' of exceptions.NameError object>"
p29
sS'__class__'
p30
S"<type 'exceptions.NameError'>"
p31
sS'__unicode__'
p32
S'<built-in method __unicode__ of exceptions.NameError object>'
p33
sS'__delattr__'
p34
S"<method-wrapper '__delattr__' of exceptions.NameError object>"
p35
sS'__subclasshook__'
p36
S'<built-in method __subclasshook__ of type object>'
p37
sS'__repr__'
p38
S"<method-wrapper '__repr__' of exceptions.NameError object>"
p39
sS'args'
p40
S'("name \'layout\' is not defined",)'
p41
sS'__dict__'
p42
S'{}'
p43
sS'__sizeof__'
p44
S'<built-in method __sizeof__ of exceptions.NameError object>'
p45
sS'__doc__'
p46
S"'Name not found globally.'"
p47
sS'__init__'
p48
S"<method-wrapper '__init__' of exceptions.NameError object>"
p49
sS'__new__'
p50
S'<built-in method __new__ of type object>'
p51
ssS'evalue'
p52
S"name 'layout' is not defined"
p53
sS'request'
p54
cgluon.html
XML_unpickle
p55
(S's\xbdX\x00\x00<div><table><tr><td style="font-weight:bold;vertical-align:top;">ajax</td><td style="vertical-align:top;">:</td><td><div>False</div></td></tr><tr><td style="font-weight:bold;vertical-align:top;">application</td><td style="vertical-align:top;">:</td><td><div>Note</div></td></tr><tr><td style="font-weight:bold;vertical-align:top;">args</td><td style="vertical-align:top;">:</td><td><div><table></table></div></td></tr><tr><td style="font-weight:bold;vertical-align:top;">cid</td><td style="vertical-align:top;">:</td><td><div>None</div></td></tr><tr><td style="font-weight:bold;vertical-align:top;">client</td><td style="vertical-align:top;">:</td><td><div>127.0.0.1</div></td></tr><tr><td style="font-weight:bold;vertical-align:top;">controller</td><td style="vertical-align:top;">:</td><td><div>default</div></td></tr><tr><td style="font-weight:bold;vertical-align:top;">cookies</td><td style="vertical-align:top;">:</td><td><div><table><tr><td style="font-weight:bold;vertical-align:top;">session_id_admin</td><td style="vertical-align:top;">:</td><td><div>127.0.0.1-3cfcb136-c0ef-45e9-9dc2-5afd2dbf5e28<table><tr><td style="font-weight:bold;vertical-align:top;">comment</td><td style="vertical-align:top;">:</td><td><div></div></td></tr><tr><td style="font-weight:bold;vertical-align:top;">domain</td><td style="vertical-align:top;">:</td><td><div></div></td></tr><tr><td style="font-weight:bold;vertical-align:top;">expires</td><td style="vertical-align:top;">:</td><td><div></div></td></tr><tr><td style="font-weight:bold;vertical-align:top;">httponly</td><td style="vertical-align:top;">:</td><td><div></div></td></tr><tr><td style="font-weight:bold;vertical-align:top;">max-age</td><td style="vertical-align:top;">:</td><td><div></div></td></tr><tr><td style="font-weight:bold;vertical-align:top;">path</td><td style="vertical-align:top;">:</td><td><div></div></td></tr><tr><td style="font-weight:bold;vertical-align:top;">secure</td><td style="vertical-align:top;">:</td><td><div></div></td></tr><tr><td style="font-weight:bold;vertical-align:top;">version</td><td style="vertical-align:top;">:</td><td><div></div></td></tr></table></div></td></tr><tr><td style="font-weight:bold;vertical-align:top;">session_id_note</td><td style="vertical-align:top;">:</td><td><div>127.0.0.1-6e4d28b4-5f23-4cf3-b69c-384193bcaf8c<table><tr><td style="font-weight:bold;vertical-align:top;">comment</td><td style="vertical-align:top;">:</td><td><div></div></td></tr><tr><td style="font-weight:bold;vertical-align:top;">domain</td><td style="vertical-align:top;">:</td><td><div></div></td></tr><tr><td style="font-weight:bold;vertical-align:top;">expires</td><td style="vertical-align:top;">:</td><td><div></div></td></tr><tr><td style="font-weight:bold;vertical-align:top;">httponly</td><td style="vertical-align:top;">:</td><td><div></div></td></tr><tr><td style="font-weight:bold;vertical-align:top;">max-age</td><td style="vertical-align:top;">:</td><td><div></div></td></tr><tr><td style="font-weight:bold;vertical-align:top;">path</td><td style="vertical-align:top;">:</td><td><div></div></td></tr><tr><td style="font-weight:bold;vertical-align:top;">secure</td><td style="vertical-align:top;">:</td><td><div></div></td></tr><tr><td style="font-weight:bold;vertical-align:top;">version</td><td style="vertical-align:top;">:</td><td><div></div></td></tr></table></div></td></tr><tr><td style="font-weight:bold;vertical-align:top;">session_id_welcome</td><td style="vertical-align:top;">:</td><td><div>127.0.0.1-1706dfdc-9d9a-4334-a603-05a6e633fa30<table><tr><td style="font-weight:bold;vertical-align:top;">comment</td><td style="vertical-align:top;">:</td><td><div></div></td></tr><tr><td style="font-weight:bold;vertical-align:top;">domain</td><td style="vertical-align:top;">:</td><td><div></div></td></tr><tr><td style="font-weight:bold;vertical-align:top;">expires</td><td style="vertical-align:top;">:</td><td><div></div></td></tr><tr><td style="font-weight:bold;vertical-align:top;">httponly</td><td style="vertical-align:top;">:</td><td><div></div></td></tr><tr><td style="font-weight:bold;vertical-align:top;">max-age</td><td style="vertical-align:top;">:</td><td><div></div></td></tr><tr><td style="font-weight:bold;vertical-align:top;">path</td><td style="vertical-align:top;">:</td><td><div></div></td></tr><tr><td style="font-weight:bold;vertical-align:top;">secure</td><td style="vertical-align:top;">:</td><td><div></div></td></tr><tr><td style="font-weight:bold;vertical-align:top;">version</td><td style="vertical-align:top;">:</td><td><div></div></td></tr></table></div></td></tr></table></div></td></tr><tr><td style="font-weight:bold;vertical-align:top;">env</td><td style="vertical-align:top;">:</td><td><div><table><tr><td style="font-weight:bold;vertical-align:top;">HTTP_ACCEPT</td><td style="vertical-align:top;">:</td><td><div>text/html,application/xhtml+xml,application/xml;q=0.9,*/*;q=0.8</div></td></tr><tr><td style="font-weight:bold;vertical-align:top;">HTTP_ACCEPT_ENCODING</td><td style="vertical-align:top;">:</td><td><div>gzip, deflate</div></td></tr><tr><td style="font-weight:bold;vertical-align:top;">HTTP_ACCEPT_LANGUAGE</td><td style="vertical-align:top;">:</td><td><div>en-US,en;q=0.5</div></td></tr><tr><td style="font-weight:bold;vertical-align:top;">HTTP_CONNECTION</td><td style="vertical-align:top;">:</td><td><div>keep-alive</div></td></tr><tr><td style="font-weight:bold;vertical-align:top;">HTTP_COOKIE</td><td style="vertical-align:top;">:</td><td><div>session_id_welcome=127.0.0.1-1706dfdc-9d9a-4334-a603-05a6e633fa30; session_id_admin=127.0.0.1-3cfcb136-c0ef-45e9-9dc2-5afd2dbf5e28; session_id_note=127.0.0.1-6e4d28b4-5f23-4cf3-b69c-384193bcaf8c</div></td></tr><tr><td style="font-weight:bold;vertical-align:top;">HTTP_HOST</td><td style="vertical-align:top;">:</td><td><div>127.0.0.1:8000</div></td></tr><tr><td style="font-weight:bold;vertical-align:top;">HTTP_USER_AGENT</td><td style="vertical-align:top;">:</td><td><div>Mozilla/5.0 (X11; Linux i686; rv:27.0) Gecko/20100101 Firefox/27.0</div></td></tr><tr><td style="font-weight:bold;vertical-align:top;">PATH_INFO</td><td style="vertical-align:top;">:</td><td><div>/Note/default/main</div></td></tr><tr><td style="font-weight:bold;vertical-align:top;">QUERY_STRING</td><td style="vertical-align:top;">:</td><td><div></div></td></tr><tr><td style="font-weight:bold;vertical-align:top;">REMOTE_ADDR</td><td style="vertical-align:top;">:</td><td><div>127.0.0.1</div></td></tr><tr><td style="font-weight:bold;vertical-align:top;">REMOTE_PORT</td><td style="vertical-align:top;">:</td><td><div>37491</div></td></tr><tr><td style="font-weight:bold;vertical-align:top;">REQUEST_METHOD</td><td style="vertical-align:top;">:</td><td><div>GET</div></td></tr><tr><td style="font-weight:bold;vertical-align:top;">SCRIPT_NAME</td><td style="vertical-align:top;">:</td><td><div></div></td></tr><tr><td style="font-weight:bold;vertical-align:top;">SERVER_NAME</td><td style="vertical-align:top;">:</td><td><div>CR13082</div></td></tr><tr><td style="font-weight:bold;vertical-align:top;">SERVER_PORT</td><td style="vertical-align:top;">:</td><td><div>8000</div></td></tr><tr><td style="font-weight:bold;vertical-align:top;">SERVER_PROTOCOL</td><td style="vertical-align:top;">:</td><td><div>HTTP/1.1</div></td></tr><tr><td style="font-weight:bold;vertical-align:top;">SERVER_SOFTWARE</td><td style="vertical-align:top;">:</td><td><div>Rocket 1.2.6</div></td></tr><tr><td style="font-weight:bold;vertical-align:top;">app_folders</td><td style="vertical-align:top;">:</td><td><div>set([&#x27;/ug/ug2k13/cse/kushal.singh/web2py/applications/Note/&#x27;, &#x27;/ug/ug2k13/cse/kushal.singh/web2py/applications/admin/&#x27;, &#x27;/ug/ug2k13/cse/kushal.singh/web2py/applications/welcome/&#x27;])</div></td></tr><tr><td style="font-weight:bold;vertical-align:top;">applications_parent</td><td style="vertical-align:top;">:</td><td><div>/ug/ug2k13/cse/kushal.singh/web2py</div></td></tr><tr><td style="font-weight:bold;vertical-align:top;">cmd_args</td><td style="vertical-align:top;">:</td><td><div><table></table></div></td></tr><tr><td style="font-weight:bold;vertical-align:top;">cmd_options</td><td style="vertical-align:top;">:</td><td><div>&lt;Values at 0xa0c494c: {&#x27;verbose&#x27;: False, &#x27;ip&#x27;: &#x27;127.0.0.1&#x27;, &#x27;debuglevel&#x27;: 30, &#x27;with_scheduler&#x27;: False, &#x27;ips&#x27;: [&#x27;::1&#x27;], &#x27;shutdown_timeout&#x27;: 5, &#x27;taskbar&#x27;: False, &#x27;with_coverage&#x27;: False, &#x27;port&#x27;: 8000, &#x27;maxthreads&#x27;: None, &#x27;softcron&#x27;: False, &#x27;server_name&#x27;: &#x27;CR13082&#x27;, &#x27;bpython&#x27;: False, &#x27;nogui&#x27;: False, &#x27;pid_filename&#x27;: &#x27;httpserver.pid&#x27;, &#x27;extcron&#x27;: False, &#x27;runcron&#x27;: False, &#x27;run_system_tests&#x27;: False, &#x27;test&#x27;: None, &#x27;folder&#x27;: &#x27;/ug/ug2k13/cse/kushal.singh/web2py&#x27;, &#x27;config&#x27;: &#x27;&#x27;, &#x27;minthreads&#x27;: None, &#x27;shell&#x27;: None, &#x27;run&#x27;: &#x27;&#x27;, &#x27;log_filename&#x27;: &#x27;httpserver.log&#x27;, &#x27;profiler_dir&#x27;: None, &#x27;args&#x27;: [&#x27;&#x27;], &#x27;socket_timeout&#x27;: 5, &#x27;ssl_ca_certificate&#x27;: None, &#x27;scheduler&#x27;: None, &#x27;interfaces&#x27;: None, &#x27;ssl_private_key&#x27;: &#x27;&#x27;, &#x27;scheduler_groups&#x27;: None, &#x27;password&#x27;: &#x27;&lt;ask&gt;&#x27;, &#x27;request_queue_size&#x27;: 5, &#x27;ssl_certificate&#x27;: &#x27;&#x27;, &#x27;cronjob&#x27;: False, &#x27;numthreads&#x27;: None, &#x27;quiet&#x27;: False, &#x27;import_models&#x27;: False, &#x27;timeout&#x27;: 10, &#x27;plain&#x27;: False, &#x27;nobanner&#x27;: False}&gt;</div></td></tr><tr><td style="font-weight:bold;vertical-align:top;">db_sessions</td><td style="vertical-align:top;">:</td><td><div>set([])</div></td></tr><tr><td style="font-weight:bold;vertical-align:top;">debugging</td><td style="vertical-align:top;">:</td><td><div>False</div></td></tr><tr><td style="font-weight:bold;vertical-align:top;">gluon_parent</td><td style="vertical-align:top;">:</td><td><div>/ug/ug2k13/cse/kushal.singh/web2py</div></td></tr><tr><td style="font-weight:bold;vertical-align:top;">http_accept</td><td style="vertical-align:top;">:</td><td><div>text/html,application/xhtml+xml,application/xml;q=0.9,*/*;q=0.8</div></td></tr><tr><td style="font-weight:bold;vertical-align:top;">http_accept_encoding</td><td style="vertical-align:top;">:</td><td><div>gzip, deflate</div></td></tr><tr><td style="font-weight:bold;vertical-align:top;">http_accept_language</td><td style="vertical-align:top;">:</td><td><div>en-US,en;q=0.5</div></td></tr><tr><td style="font-weight:bold;vertical-align:top;">http_connection</td><td style="vertical-align:top;">:</td><td><div>keep-alive</div></td></tr><tr><td style="font-weight:bold;vertical-align:top;">http_cookie</td><td style="vertical-align:top;">:</td><td><div>session_id_welcome=127.0.0.1-1706dfdc-9d9a-4334-a603-05a6e633fa30; session_id_admin=127.0.0.1-3cfcb136-c0ef-45e9-9dc2-5afd2dbf5e28; session_id_note=127.0.0.1-6e4d28b4-5f23-4cf3-b69c-384193bcaf8c</div></td></tr><tr><td style="font-weight:bold;vertical-align:top;">http_host</td><td style="vertical-align:top;">:</td><td><div>127.0.0.1:8000</div></td></tr><tr><td style="font-weight:bold;vertical-align:top;">http_user_agent</td><td style="vertical-align:top;">:</td><td><div>Mozilla/5.0 (X11; Linux i686; rv:27.0) Gecko/20100101 Firefox/27.0</div></td></tr><tr><td style="font-weight:bold;vertical-align:top;">is_jython</td><td style="vertical-align:top;">:</td><td><div>False</div></td></tr><tr><td style="font-weight:bold;vertical-align:top;">is_pypy</td><td style="vertical-align:top;">:</td><td><div>False</div></td></tr><tr><td style="font-weight:bold;vertical-align:top;">is_source</td><td style="vertical-align:top;">:</td><td><div>True</div></td></tr><tr><td style="font-weight:bold;vertical-align:top;">local_hosts</td><td style="vertical-align:top;">:</td><td><div><table><tr><td><div>::ffff:127.0.0.1</div></td></tr><tr><td><div>::1</div></td></tr><tr><td><div>localhost6.localdomain6</div></td></tr><tr><td><div>CR13082</div></td></tr><tr><td><div>127.0.0.1</div></td></tr><tr><td><div>10.3.10.135</div></td></tr></table></div></td></tr><tr><td style="font-weight:bold;vertical-align:top;">path_info</td><td style="vertical-align:top;">:</td><td><div>/Note/default/main</div></td></tr><tr><td style="font-weight:bold;vertical-align:top;">query_string</td><td style="vertical-align:top;">:</td><td><div></div></td></tr><tr><td style="font-weight:bold;vertical-align:top;">remote_addr</td><td style="vertical-align:top;">:</td><td><div>127.0.0.1</div></td></tr><tr><td style="font-weight:bold;vertical-align:top;">remote_port</td><td style="vertical-align:top;">:</td><td><div>37491</div></td></tr><tr><td style="font-weight:bold;vertical-align:top;">request_method</td><td style="vertical-align:top;">:</td><td><div>GET</div></td></tr><tr><td style="font-weight:bold;vertical-align:top;">request_uri</td><td style="vertical-align:top;">:</td><td><div>/Note/default/main</div></td></tr><tr><td style="font-weight:bold;vertical-align:top;">script_name</td><td style="vertical-align:top;">:</td><td><div></div></td></tr><tr><td style="font-weight:bold;vertical-align:top;">server_name</td><td style="vertical-align:top;">:</td><td><div>CR13082</div></td></tr><tr><td style="font-weight:bold;vertical-align:top;">server_port</td><td style="vertical-align:top;">:</td><td><div>8000</div></td></tr><tr><td style="font-weight:bold;vertical-align:top;">server_protocol</td><td style="vertical-align:top;">:</td><td><div>HTTP/1.1</div></td></tr><tr><td style="font-weight:bold;vertical-align:top;">server_software</td><td style="vertical-align:top;">:</td><td><div>Rocket 1.2.6</div></td></tr><tr><td style="font-weight:bold;vertical-align:top;">web2py_path</td><td style="vertical-align:top;">:</td><td><div>/ug/ug2k13/cse/kushal.singh/web2py</div></td></tr><tr><td style="font-weight:bold;vertical-align:top;">web2py_version</td><td style="vertical-align:top;">:</td><td><div>2.9.4-stable+timestamp.2014.03.05.04.44.09</div></td></tr><tr><td style="font-weight:bold;vertical-align:top;">wsgi.errors</td><td style="vertical-align:top;">:</td><td><div>&lt;open file &#x27;&lt;stderr&gt;&#x27;, mode &#x27;w&#x27; at 0xb784b0d0&gt;</div></td></tr><tr><td style="font-weight:bold;vertical-align:top;">wsgi.file_wrapper</td><td style="vertical-align:top;">:</td><td><div>&lt;class wsgiref.util.FileWrapper at 0xa98ed7c&gt;</div></td></tr><tr><td style="font-weight:bold;vertical-align:top;">wsgi.input</td><td style="vertical-align:top;">:</td><td><div>&lt;socket._fileobject object at 0xaf186eac&gt;</div></td></tr><tr><td style="font-weight:bold;vertical-align:top;">wsgi.multiprocess</td><td style="vertical-align:top;">:</td><td><div>False</div></td></tr><tr><td style="font-weight:bold;vertical-align:top;">wsgi.multithread</td><td style="vertical-align:top;">:</td><td><div>True</div></td></tr><tr><td style="font-weight:bold;vertical-align:top;">wsgi.run_once</td><td style="vertical-align:top;">:</td><td><div>False</div></td></tr><tr><td style="font-weight:bold;vertical-align:top;">wsgi.url_scheme</td><td style="vertical-align:top;">:</td><td><div>http</div></td></tr><tr><td style="font-weight:bold;vertical-align:top;">wsgi.version</td><td style="vertical-align:top;">:</td><td><div><table><tr><td><div>1</div></td></tr><tr><td><div>0</div></td></tr></table></div></td></tr><tr><td style="font-weight:bold;vertical-align:top;">wsgi_errors</td><td style="vertical-align:top;">:</td><td><div>&lt;open file &#x27;&lt;stderr&gt;&#x27;, mode &#x27;w&#x27; at 0xb784b0d0&gt;</div></td></tr><tr><td style="font-weight:bold;vertical-align:top;">wsgi_file_wrapper</td><td style="vertical-align:top;">:</td><td><div>&lt;class wsgiref.util.FileWrapper at 0xa98ed7c&gt;</div></td></tr><tr><td style="font-weight:bold;vertical-align:top;">wsgi_input</td><td style="vertical-align:top;">:</td><td><div>&lt;socket._fileobject object at 0xaf186eac&gt;</div></td></tr><tr><td style="font-weight:bold;vertical-align:top;">wsgi_multiprocess</td><td style="vertical-align:top;">:</td><td><div>False</div></td></tr><tr><td style="font-weight:bold;vertical-align:top;">wsgi_multithread</td><td style="vertical-align:top;">:</td><td><div>True</div></td></tr><tr><td style="font-weight:bold;vertical-align:top;">wsgi_run_once</td><td style="vertical-align:top;">:</td><td><div>False</div></td></tr><tr><td style="font-weight:bold;vertical-align:top;">wsgi_url_scheme</td><td style="vertical-align:top;">:</td><td><div>http</div></td></tr><tr><td style="font-weight:bold;vertical-align:top;">wsgi_version</td><td style="vertical-align:top;">:</td><td><div><table><tr><td><div>1</div></td></tr><tr><td><div>0</div></td></tr></table></div></td></tr></table></div></td></tr><tr><td style="font-weight:bold;vertical-align:top;">extension</td><td style="vertical-align:top;">:</td><td><div>html</div></td></tr><tr><td style="font-weight:bold;vertical-align:top;">folder</td><td style="vertical-align:top;">:</td><td><div>/ug/ug2k13/cse/kushal.singh/web2py/applications/Note/</div></td></tr><tr><td style="font-weight:bold;vertical-align:top;">function</td><td style="vertical-align:top;">:</td><td><div>main</div></td></tr><tr><td style="font-weight:bold;vertical-align:top;">global_settings</td><td style="vertical-align:top;">:</td><td><div><table><tr><td style="font-weight:bold;vertical-align:top;">app_folders</td><td style="vertical-align:top;">:</td><td><div>set([&#x27;/ug/ug2k13/cse/kushal.singh/web2py/applications/Note/&#x27;, &#x27;/ug/ug2k13/cse/kushal.singh/web2py/applications/admin/&#x27;, &#x27;/ug/ug2k13/cse/kushal.singh/web2py/applications/welcome/&#x27;])</div></td></tr><tr><td style="font-weight:bold;vertical-align:top;">applications_parent</td><td style="vertical-align:top;">:</td><td><div>/ug/ug2k13/cse/kushal.singh/web2py</div></td></tr><tr><td style="font-weight:bold;vertical-align:top;">cmd_args</td><td style="vertical-align:top;">:</td><td><div><table></table></div></td></tr><tr><td style="font-weight:bold;vertical-align:top;">cmd_options</td><td style="vertical-align:top;">:</td><td><div>&lt;Values at 0xa0c494c: {&#x27;verbose&#x27;: False, &#x27;ip&#x27;: &#x27;127.0.0.1&#x27;, &#x27;debuglevel&#x27;: 30, &#x27;with_scheduler&#x27;: False, &#x27;ips&#x27;: [&#x27;::1&#x27;], &#x27;shutdown_timeout&#x27;: 5, &#x27;taskbar&#x27;: False, &#x27;with_coverage&#x27;: False, &#x27;port&#x27;: 8000, &#x27;maxthreads&#x27;: None, &#x27;softcron&#x27;: False, &#x27;server_name&#x27;: &#x27;CR13082&#x27;, &#x27;bpython&#x27;: False, &#x27;nogui&#x27;: False, &#x27;pid_filename&#x27;: &#x27;httpserver.pid&#x27;, &#x27;extcron&#x27;: False, &#x27;runcron&#x27;: False, &#x27;run_system_tests&#x27;: False, &#x27;test&#x27;: None, &#x27;folder&#x27;: &#x27;/ug/ug2k13/cse/kushal.singh/web2py&#x27;, &#x27;config&#x27;: &#x27;&#x27;, &#x27;minthreads&#x27;: None, &#x27;shell&#x27;: None, &#x27;run&#x27;: &#x27;&#x27;, &#x27;log_filename&#x27;: &#x27;httpserver.log&#x27;, &#x27;profiler_dir&#x27;: None, &#x27;args&#x27;: [&#x27;&#x27;], &#x27;socket_timeout&#x27;: 5, &#x27;ssl_ca_certificate&#x27;: None, &#x27;scheduler&#x27;: None, &#x27;interfaces&#x27;: None, &#x27;ssl_private_key&#x27;: &#x27;&#x27;, &#x27;scheduler_groups&#x27;: None, &#x27;password&#x27;: &#x27;&lt;ask&gt;&#x27;, &#x27;request_queue_size&#x27;: 5, &#x27;ssl_certificate&#x27;: &#x27;&#x27;, &#x27;cronjob&#x27;: False, &#x27;numthreads&#x27;: None, &#x27;quiet&#x27;: False, &#x27;import_models&#x27;: False, &#x27;timeout&#x27;: 10, &#x27;plain&#x27;: False, &#x27;nobanner&#x27;: False}&gt;</div></td></tr><tr><td style="font-weight:bold;vertical-align:top;">db_sessions</td><td style="vertical-align:top;">:</td><td><div>set([])</div></td></tr><tr><td style="font-weight:bold;vertical-align:top;">debugging</td><td style="vertical-align:top;">:</td><td><div>False</div></td></tr><tr><td style="font-weight:bold;vertical-align:top;">gluon_parent</td><td style="vertical-align:top;">:</td><td><div>/ug/ug2k13/cse/kushal.singh/web2py</div></td></tr><tr><td style="font-weight:bold;vertical-align:top;">is_jython</td><td style="vertical-align:top;">:</td><td><div>False</div></td></tr><tr><td style="font-weight:bold;vertical-align:top;">is_pypy</td><td style="vertical-align:top;">:</td><td><div>False</div></td></tr><tr><td style="font-weight:bold;vertical-align:top;">is_source</td><td style="vertical-align:top;">:</td><td><div>True</div></td></tr><tr><td style="font-weight:bold;vertical-align:top;">local_hosts</td><td style="vertical-align:top;">:</td><td><div><table><tr><td><div>::ffff:127.0.0.1</div></td></tr><tr><td><div>::1</div></td></tr><tr><td><div>localhost6.localdomain6</div></td></tr><tr><td><div>CR13082</div></td></tr><tr><td><div>127.0.0.1</div></td></tr><tr><td><div>10.3.10.135</div></td></tr></table></div></td></tr><tr><td style="font-weight:bold;vertical-align:top;">web2py_version</td><td style="vertical-align:top;">:</td><td><div>2.9.4-stable+timestamp.2014.03.05.04.44.09</div></td></tr></table></div></td></tr><tr><td style="font-weight:bold;vertical-align:top;">is_https</td><td style="vertical-align:top;">:</td><td><div>False</div></td></tr><tr><td style="font-weight:bold;vertical-align:top;">is_local</td><td style="vertical-align:top;">:</td><td><div>True</div></td></tr><tr><td style="font-weight:bold;vertical-align:top;">is_restful</td><td style="vertical-align:top;">:</td><td><div>False</div></td></tr><tr><td style="font-weight:bold;vertical-align:top;">now</td><td style="vertical-align:top;">:</td><td><div>datetime.datetime(2014, 3, 22, 19, 22, 39, 367341)</div></td></tr><tr><td style="font-weight:bold;vertical-align:top;">raw_args</td><td style="vertical-align:top;">:</td><td><div></div></td></tr><tr><td style="font-weight:bold;vertical-align:top;">raw_extension</td><td style="vertical-align:top;">:</td><td><div>None</div></td></tr><tr><td style="font-weight:bold;vertical-align:top;">url</td><td style="vertical-align:top;">:</td><td><div>/Note/default/main</div></td></tr><tr><td style="font-weight:bold;vertical-align:top;">utcnow</td><td style="vertical-align:top;">:</td><td><div>datetime.datetime(2014, 3, 22, 13, 52, 39, 367365)</div></td></tr><tr><td style="font-weight:bold;vertical-align:top;">uuid</td><td style="vertical-align:top;">:</td><td><div>Note/127.0.0.1.2014-03-22.19-22-39.0d3c7a50-bd61-445d-af0a-fdb68316c277</div></td></tr><tr><td style="font-weight:bold;vertical-align:top;">wsgi</td><td style="vertical-align:top;">:</td><td><div>&lt;gluon.main.LazyWSGI object at 0xafa61c8c&gt;</div></td></tr></table></div>'
tRp56
sS'frames'
p57
(lp58
(dp59
S'file'
p60
S'/ug/ug2k13/cse/kushal.singh/web2py/gluon/main.py'
p61
sS'dump'
p62
(dp63
S'global serve_controller'
p64
S'<function serve_controller>'
p65
sS'session'
p66
S"<Storage {'_user_agent': <Storage {'os': <Storag...orage {'version': '27.0', 'name': 'Firefox'}>}>}>"
p67
sS'request'
p68
S"<Storage {'_vars': None, 'function': 'main', 'co...k13/cse/kushal.singh/web2py/applications/Note/'}>"
p69
sS'response'
p70
S"<Storage {'body': <cStringIO.StringO object at 0...bda> at 0xa0c2d84>, 'view': 'default/main.html'}>"
p71
ssS'lnum'
p72
I446
sS'lines'
p73
(dp74
I448
S'            except HTTP, http_response:'
p75
sI449
S''
sI450
S'                if static_file:'
p76
sI441
S'                if global_settings.debugging and app != "admin":'
p77
sI442
S'                    import gluon.debug'
p78
sI443
S'                    # activate the debugger'
p79
sI444
S'                    gluon.debug.dbg.do_debug(mainpyfile=request.folder)'
p80
sI445
S''
sI446
S'                serve_controller(request, response, session)'
p81
sI447
S''
ssS'call'
p82
S"(environ={'HTTP_ACCEPT': 'text/html,application/xhtml+xml,application/xml;q=0.9,*/*;q=0.8', 'HTTP_ACCEPT_ENCODING': 'gzip, deflate', 'HTTP_ACCEPT_LANGUAGE': 'en-US,en;q=0.5', 'HTTP_CONNECTION': 'keep-alive', 'HTTP_COOKIE': 'session_id_welcome=127.0.0.1-1706dfdc-9d9a-4334-...te=127.0.0.1-6e4d28b4-5f23-4cf3-b69c-384193bcaf8c', 'HTTP_HOST': '127.0.0.1:8000', 'HTTP_USER_AGENT': 'Mozilla/5.0 (X11; Linux i686; rv:27.0) Gecko/20100101 Firefox/27.0', 'PATH_INFO': '/Note/default/main', 'QUERY_STRING': '', 'REMOTE_ADDR': '127.0.0.1', ...}, responder=<function responder2>)"
p83
sS'func'
p84
S'wsgibase'
p85
sa(dp86
g60
S'/ug/ug2k13/cse/kushal.singh/web2py/gluon/main.py'
p87
sg62
(dp88
S'response._view_environment'
p89
S"{'A': <class 'gluon.html.A'>, 'ANY_OF': <class 'gluon.validators.ANY_OF'>, 'Auth': <class 'gluon.tools.Auth'>, 'B': <class 'gluon.html.B'>, 'BEAUTIFY': <class 'gluon.html.BEAUTIFY'>, 'BODY': <class 'gluon.html.BODY'>, 'BR': <class 'gluon.html.BR'>, 'BUTTON': <class 'gluon.html.BUTTON'>, 'CAT': <class 'gluon.html.CAT'>, 'CENTER': <class 'gluon.html.CENTER'>, ...}"
p90
sS'response'
p91
S"<Storage {'body': <cStringIO.StringO object at 0...bda> at 0xa0c2d84>, 'view': 'default/main.html'}>"
p92
sS'global run_view_in'
p93
S'<function run_view_in>'
p94
ssg72
I196
sg73
(dp95
I192
S'    page = run_controller_in(request.controller, request.function, environment)'
p96
sI193
S'    if isinstance(page, dict):'
p97
sI194
S'        response._vars = page'
p98
sI195
S'        response._view_environment.update(page)'
p99
sI196
S'        run_view_in(response._view_environment)'
p100
sI197
S'        page = response.body.getvalue()'
p101
sI198
S'    # logic to garbage collect after exec, not always, once every 100 requests'
p102
sI199
S'    global requests'
p103
sI200
S"    requests = ('requests' in globals()) and (requests + 1) % 100 or 0"
p104
sI191
S'    response._view_environment = copy.copy(environment)'
p105
ssg82
S"(request=<Storage {'_vars': None, 'function': 'main', 'co...k13/cse/kushal.singh/web2py/applications/Note/'}>, response=<Storage {'body': <cStringIO.StringO object at 0...bda> at 0xa0c2d84>, 'view': 'default/main.html'}>, session=<Storage {'_user_agent': <Storage {'os': <Storag...orage {'version': '27.0', 'name': 'Firefox'}>}>}>)"
p106
sg84
S'serve_controller'
p107
sa(dp108
g60
S'/ug/ug2k13/cse/kushal.singh/web2py/gluon/compileapp.py'
p109
sg62
(dp110
S'environment'
p111
S"{'A': <class 'gluon.html.A'>, 'ANY_OF': <class 'gluon.validators.ANY_OF'>, 'Auth': <class 'gluon.tools.Auth'>, 'B': <class 'gluon.html.B'>, 'BEAUTIFY': <class 'gluon.html.BEAUTIFY'>, 'BODY': <class 'gluon.html.BODY'>, 'BR': <class 'gluon.html.BR'>, 'BUTTON': <class 'gluon.html.BUTTON'>, 'CAT': <class 'gluon.html.CAT'>, 'CENTER': <class 'gluon.html.CENTER'>, ...}"
p112
sS'context'
p113
S'undefined'
p114
ssg72
I708
sg73
(dp115
I704
S'                                            context=environment), layer))'
p116
sI705
S'        else:'
p117
sI706
S'            ccode = parse_template(view,'
p118
sI707
S"                                   pjoin(folder, 'views'),"
p119
sI708
S'                                   context=environment)'
p120
sI709
S'        restricted(ccode, environment, layer)'
p121
sI710
S''
sI711
S''
sI712
S'def remove_compiled_application(folder):'
p122
sI703
S"                                            pjoin(folder, 'views'),"
p123
ssg82
S"(environment={'A': <class 'gluon.html.A'>, 'ANY_OF': <class 'gluon.validators.ANY_OF'>, 'Auth': <class 'gluon.tools.Auth'>, 'B': <class 'gluon.html.B'>, 'BEAUTIFY': <class 'gluon.html.BEAUTIFY'>, 'BODY': <class 'gluon.html.BODY'>, 'BR': <class 'gluon.html.BR'>, 'BUTTON': <class 'gluon.html.BUTTON'>, 'CAT': <class 'gluon.html.CAT'>, 'CENTER': <class 'gluon.html.CENTER'>, ...})"
p124
sg84
S'run_view_in'
p125
sa(dp126
g60
S'/ug/ug2k13/cse/kushal.singh/web2py/gluon/template.py'
p127
sg62
(dp128
S'builtinstr'
p129
S"<type 'str'>"
p130
sS'global TemplateParser'
p131
S"<class 'gluon.template.TemplateParser'>"
p132
sS'delimiters'
p133
S"('{{', '}}')"
p134
sS'context'
p135
S"{'A': <class 'gluon.html.A'>, 'ANY_OF': <class 'gluon.validators.ANY_OF'>, 'Auth': <class 'gluon.tools.Auth'>, 'B': <class 'gluon.html.B'>, 'BEAUTIFY': <class 'gluon.html.BEAUTIFY'>, 'BODY': <class 'gluon.html.BODY'>, 'BR': <class 'gluon.html.BR'>, 'BUTTON': <class 'gluon.html.BUTTON'>, 'CAT': <class 'gluon.html.CAT'>, 'CENTER': <class 'gluon.html.CENTER'>, ...}"
p136
sS'text'
p137
S"'{{extend layout.html}}\\n{{x=5}}\\n{{=x}}\\n'"
p138
sS'path'
p139
S"'/ug/ug2k13/cse/kushal.singh/web2py/applications/Note/views'"
p140
sS'lexers'
p141
g43
ssg72
I790
sg73
(dp142
I785
S"            raise RestrictedError(filename, '', 'Unable to find the file')"
p143
sI786
S'    else:'
p144
sI787
S'        text = filename.read()'
p145
sI788
S''
sI789
S'    # Use the file contents to get a parsed template and return it.'
p146
sI790
S'    return str(TemplateParser(text, context=context, path=path, lexers=lexers, delimiters=delimiters))'
p147
sI791
S''
sI792
S''
sI793
S'def get_parsed(text):'
p148
sI794
S'    """'
p149
ssg82
S"(filename='default/main.html', path='/ug/ug2k13/cse/kushal.singh/web2py/applications/Note/views', context={'A': <class 'gluon.html.A'>, 'ANY_OF': <class 'gluon.validators.ANY_OF'>, 'Auth': <class 'gluon.tools.Auth'>, 'B': <class 'gluon.html.B'>, 'BEAUTIFY': <class 'gluon.html.BEAUTIFY'>, 'BODY': <class 'gluon.html.BODY'>, 'BR': <class 'gluon.html.BR'>, 'BUTTON': <class 'gluon.html.BUTTON'>, 'CAT': <class 'gluon.html.CAT'>, 'CENTER': <class 'gluon.html.CENTER'>, ...}, lexers={}, delimiters=('{{', '}}'))"
p150
sg84
S'parse_template'
p151
sa(dp152
g60
S'/ug/ug2k13/cse/kushal.singh/web2py/gluon/template.py'
p153
sg62
(dp154
S'text'
p155
S"'{{extend layout.html}}\\n{{x=5}}\\n{{=x}}\\n'"
p156
sS'self'
p157
S'<gluon.template.TemplateParser object>'
p158
sS'self.parse'
p159
S'<bound method TemplateParser.parse of <gluon.template.TemplateParser object>>'
p160
ssg72
I316
sg73
(dp161
I320
S'        Return the parsed template with correct indentation.'
p162
sI311
S'        # This variable will hold a reference to every block'
p163
sI312
S'        # that we come across in this template'
p164
sI313
S'        self.blocks = {}'
p165
sI314
S''
sI315
S'        # Begin parsing.'
p166
sI316
S'        self.parse(text)'
p167
sI317
S''
sI318
S'    def to_string(self):'
p168
sI319
S'        """'
p169
ssg82
S"(self=<gluon.template.TemplateParser object>, text='{{extend layout.html}}\\n{{x=5}}\\n{{=x}}\\n', name='ParserContainer', context={'A': <class 'gluon.html.A'>, 'ANY_OF': <class 'gluon.validators.ANY_OF'>, 'Auth': <class 'gluon.tools.Auth'>, 'B': <class 'gluon.html.B'>, 'BEAUTIFY': <class 'gluon.html.BEAUTIFY'>, 'BODY': <class 'gluon.html.BODY'>, 'BR': <class 'gluon.html.BR'>, 'BUTTON': <class 'gluon.html.BUTTON'>, 'CAT': <class 'gluon.html.CAT'>, 'CENTER': <class 'gluon.html.CENTER'>, ...}, path='/ug/ug2k13/cse/kushal.singh/web2py/applications/Note/views', writer='response.write', lexers={}, delimiters=('{{', '}}'), _super_nodes=[])"
p170
sg84
g48
sa(dp171
g60
S'/ug/ug2k13/cse/kushal.singh/web2py/gluon/template.py'
p172
sg62
(dp173
S'self'
p174
S'<gluon.template.TemplateParser object>'
p175
sS'extend'
p176
S"'layout.html'"
p177
sS'self.extend'
p178
S'<bound method TemplateParser.extend of <gluon.template.TemplateParser object>>'
p179
ssg72
I761
sg73
(dp180
I756
S'            # Sometimes I miss C-Style pointers... I want my asterisk...'
p181
sI757
S'            self.child_super_nodes.remove(node)'
p182
sI758
S''
sI759
S'        # If we need to extend a template.'
p183
sI760
S'        if extend:'
p184
sI761
S'            self.extend(extend)'
p185
sI762
S''
sI763
S'# We need this for integration with gluon'
p186
sI764
S''
sI765
S''
ssg82
S"(self=<gluon.template.TemplateParser object>, text='{{extend layout.html}}\\n{{x=5}}\\n{{=x}}\\n')"
p187
sg84
S'parse'
p188
sa(dp189
g60
S'/ug/ug2k13/cse/kushal.singh/web2py/gluon/template.py'
p190
sg62
(dp191
S'text'
p192
g114
sS'self'
p193
S'<gluon.template.TemplateParser object>'
p194
sS'self._get_file_text'
p195
S'<bound method TemplateParser._get_file_text of <gluon.template.TemplateParser object>>'
p196
sS'filename'
p197
S"'layout.html'"
p198
sS'builtintuple'
p199
S"<type 'tuple'>"
p200
sS'self.delimiters'
p201
S"('{{', '}}')"
p202
ssg72
I476
sg73
(dp203
I480
S'        # We want to include any non-handled nodes.'
p204
sI471
S'        """'
p205
sI472
S'        Extend ``filename``. Anything not declared in a block defined by the'
p206
sI473
S'        parent will be placed in the parent templates ``{{include}}`` block.'
p207
sI474
S'        """'
p208
sI475
S'        # If no filename, create a dummy layout with only an {{include}}.'
p209
sI476
S"        text = self._get_file_text(filename) or '%sinclude%s' % tuple(self.delimiters)"
p210
sI477
S''
sI478
S'        # Create out nodes list to send to the parent'
p211
sI479
S'        super_nodes = []'
p212
ssg82
S"(self=<gluon.template.TemplateParser object>, filename='layout.html')"
p213
sg84
S'extend'
p214
sa(dp215
g60
S'/ug/ug2k13/cse/kushal.singh/web2py/gluon/template.py'
p216
sg62
(dp217
S'builtineval'
p218
S'<built-in function eval>'
p219
sS'context'
p220
S"{'A': <class 'gluon.html.A'>, 'ANY_OF': <class 'gluon.validators.ANY_OF'>, 'Auth': <class 'gluon.tools.Auth'>, 'B': <class 'gluon.html.B'>, 'BEAUTIFY': <class 'gluon.html.BEAUTIFY'>, 'BODY': <class 'gluon.html.BODY'>, 'BR': <class 'gluon.html.BR'>, 'BUTTON': <class 'gluon.html.BUTTON'>, 'CAT': <class 'gluon.html.CAT'>, 'CENTER': <class 'gluon.html.CENTER'>, ...}"
p221
sS'filename'
p222
S"'layout.html'"
p223
ssg72
I436
sg73
(dp224
I431
S'        if current and not "response" in context:'
p225
sI432
S'            context["response"] = getattr(current, \'response\', None)'
p226
sI433
S''
sI434
S'        # Get the filename; filename looks like ``"template.html"``.'
p227
sI435
S'        # We need to eval to remove the quotes and get the string type.'
p228
sI436
S'        filename = eval(filename, context)'
p229
sI437
S''
sI438
S'        # Allow empty filename for conditional extend and include directives.'
p230
sI439
S'        if not filename:'
p231
sI440
S"            return ''"
p232
ssg82
S"(self=<gluon.template.TemplateParser object>, filename='layout.html')"
p233
sg84
S'_get_file_text'
p234
sa(dp235
g60
S'/ug/ug2k13/cse/kushal.singh/web2py/<string>'
p236
sg62
(dp237
sg72
I1
sg73
(dp238
sg82
S'()'
p239
sg84
S'<module>'
p240
sasS'pyver'
p241
S'Python 2.7: /usr/bin/python (prefix: /usr)'
p242
sS'session'
p243
g55
(S's\x1a\x00\x00\x00<div><table></table></div>'
tRp244
sS'etype'
p245
S"<type 'exceptions.NameError'>"
p246
sS'date'
p247
S'Sat Mar 22 19:22:39 2014'
p248
sS'response'
p249
g55
(S's\xdb1\x00\x00<div><table><tr><td style="font-weight:bold;vertical-align:top;">body</td><td style="vertical-align:top;">:</td><td><div>&lt;cStringIO.StringO object at 0xaf925da0&gt;</div></td></tr><tr><td style="font-weight:bold;vertical-align:top;">cookies</td><td style="vertical-align:top;">:</td><td><div><table><tr><td style="font-weight:bold;vertical-align:top;">session_id_note</td><td style="vertical-align:top;">:</td><td><div>127.0.0.1-6e4d28b4-5f23-4cf3-b69c-384193bcaf8c<table><tr><td style="font-weight:bold;vertical-align:top;">comment</td><td style="vertical-align:top;">:</td><td><div></div></td></tr><tr><td style="font-weight:bold;vertical-align:top;">domain</td><td style="vertical-align:top;">:</td><td><div></div></td></tr><tr><td style="font-weight:bold;vertical-align:top;">expires</td><td style="vertical-align:top;">:</td><td><div></div></td></tr><tr><td style="font-weight:bold;vertical-align:top;">httponly</td><td style="vertical-align:top;">:</td><td><div></div></td></tr><tr><td style="font-weight:bold;vertical-align:top;">max-age</td><td style="vertical-align:top;">:</td><td><div></div></td></tr><tr><td style="font-weight:bold;vertical-align:top;">path</td><td style="vertical-align:top;">:</td><td><div>/</div></td></tr><tr><td style="font-weight:bold;vertical-align:top;">secure</td><td style="vertical-align:top;">:</td><td><div></div></td></tr><tr><td style="font-weight:bold;vertical-align:top;">version</td><td style="vertical-align:top;">:</td><td><div></div></td></tr></table></div></td></tr></table></div></td></tr><tr><td style="font-weight:bold;vertical-align:top;">delimiters</td><td style="vertical-align:top;">:</td><td><div><table><tr><td><div>{{</div></td></tr><tr><td><div>}}</div></td></tr></table></div></td></tr><tr><td style="font-weight:bold;vertical-align:top;">files</td><td style="vertical-align:top;">:</td><td><div><table></table></div></td></tr><tr><td style="font-weight:bold;vertical-align:top;">flash</td><td style="vertical-align:top;">:</td><td><div></div></td></tr><tr><td style="font-weight:bold;vertical-align:top;">generic_patterns</td><td style="vertical-align:top;">:</td><td><div><table><tr><td><div>*</div></td></tr></table></div></td></tr><tr><td style="font-weight:bold;vertical-align:top;">google_analytics_id</td><td style="vertical-align:top;">:</td><td><div>None</div></td></tr><tr><td style="font-weight:bold;vertical-align:top;">headers</td><td style="vertical-align:top;">:</td><td><div><table><tr><td style="font-weight:bold;vertical-align:top;">X-Powered-By</td><td style="vertical-align:top;">:</td><td><div>web2py</div></td></tr></table></div></td></tr><tr><td style="font-weight:bold;vertical-align:top;">logo</td><td style="vertical-align:top;">:</td><td><div><a class="brand" href="http://www.web2py.com/"><b>web<span>2</span>py</b>&trade;&nbsp;</a></div></td></tr><tr><td style="font-weight:bold;vertical-align:top;">menu</td><td style="vertical-align:top;">:</td><td><div><table><tr><td><div><table><tr><td><div>Home</div></td></tr><tr><td><div>False</div></td></tr><tr><td><div>/Note/default/index</div></td></tr><tr><td><div><table></table></div></td></tr></table></div></td></tr><tr><td><div><table><tr><td><div><span class="highlighted">web2py</span></div></td></tr><tr><td><div>False</div></td></tr><tr><td><div>http://web2py.com</div></td></tr><tr><td><div><table><tr><td><div><table><tr><td><div>My Sites</div></td></tr><tr><td><div>False</div></td></tr><tr><td><div>/admin/default/site</div></td></tr></table></div></td></tr><tr><td><div><table><tr><td><div>This App</div></td></tr><tr><td><div>False</div></td></tr><tr><td><div>/admin/default/design/Note</div></td></tr><tr><td><div>[(&lt;lazyT &#x27;Controller&#x27;&gt;, False, &#x27;/admin/default/edit/Note/controllers/default.py&#x27;), (&lt;lazyT &#x27;View&#x27;&gt;, False, &#x27;/admin/default/edit/Note/views/default/main.html&#x27;), (&lt;lazyT &#x27;Layout&#x27;&gt;, False, &#x27;/admin/default/edit/Note/views/layout.html&#x27;), (&lt;lazyT &#x27;Stylesheet&#x27;&gt;, False, &#x27;/admin/default/edit/Note/static/css/web2py.css&#x27;), (&lt;lazyT &#x27;DB Model&#x27;&gt;, False, &#x27;/admin/default/edit/Note/models/db.py&#x27;), (&lt;lazyT &#x27;Menu Model&#x27;&gt;, False, &#x27;/admin/default/edit/Note/models/menu.py&#x27;), (&lt;lazyT &#x27;Database&#x27;&gt;, False, &#x27;/Note/appadmin/index&#x27;), (&lt;lazyT &#x27;Errors&#x27;&gt;, False, &#x27;/admin/default/errors/Note&#x27;), (&lt;lazyT &#x27;About&#x27;&gt;, False, &#x27;/admin/default/about/Note&#x27;)]</div></td></tr></table></div></td></tr><tr><td><div><table><tr><td><div>web2py.com</div></td></tr><tr><td><div>False</div></td></tr><tr><td><div>http://www.web2py.com</div></td></tr><tr><td><div>[(&lt;lazyT &#x27;Download&#x27;&gt;, False, &#x27;http://www.web2py.com/examples/default/download&#x27;), (&lt;lazyT &#x27;Support&#x27;&gt;, False, &#x27;http://www.web2py.com/examples/default/support&#x27;), (&lt;lazyT &#x27;Demo&#x27;&gt;, False, &#x27;http://web2py.com/demo_admin&#x27;), (&lt;lazyT &#x27;Quick Examples&#x27;&gt;, False, &#x27;http://web2py.com/examples/default/examples&#x27;), (&lt;lazyT &#x27;FAQ&#x27;&gt;, False, &#x27;http://web2py.com/AlterEgo&#x27;), (&lt;lazyT &#x27;Videos&#x27;&gt;, False, &#x27;http://www.web2py.com/examples/default/videos/&#x27;), (&lt;lazyT &#x27;Free Applications&#x27;&gt;, False, &#x27;http://web2py.com/appliances&#x27;), (&lt;lazyT &#x27;Plugins&#x27;&gt;, False, &#x27;http://web2py.com/plugins&#x27;), (&lt;lazyT &#x27;Layouts&#x27;&gt;, False, &#x27;http://web2py.com/layouts&#x27;), (&lt;lazyT &#x27;Recipes&#x27;&gt;, False, &#x27;http://web2pyslices.com/&#x27;), (&lt;lazyT &#x27;Semantic&#x27;&gt;, False, &#x27;http://web2py.com/semantic&#x27;)]</div></td></tr></table></div></td></tr><tr><td><div><table><tr><td><div>Documentation</div></td></tr><tr><td><div>False</div></td></tr><tr><td><div>http://www.web2py.com/book</div></td></tr><tr><td><div>[(&lt;lazyT &#x27;Preface&#x27;&gt;, False, &#x27;http://www.web2py.com/book/default/chapter/00&#x27;), (&lt;lazyT &#x27;Introduction&#x27;&gt;, False, &#x27;http://www.web2py.com/book/default/chapter/01&#x27;), (&lt;lazyT &#x27;Python&#x27;&gt;, False, &#x27;http://www.web2py.com/book/default/chapter/02&#x27;), (&lt;lazyT &#x27;Overview&#x27;&gt;, False, &#x27;http://www.web2py.com/book/default/chapter/03&#x27;), (&lt;lazyT &#x27;The Core&#x27;&gt;, False, &#x27;http://www.web2py.com/book/default/chapter/04&#x27;), (&lt;lazyT &#x27;The Views&#x27;&gt;, False, &#x27;http://www.web2py.com/book/default/chapter/05&#x27;), (&lt;lazyT &#x27;Database&#x27;&gt;, False, &#x27;http://www.web2py.com/book/default/chapter/06&#x27;), (&lt;lazyT &#x27;Forms and Validators&#x27;&gt;, False, &#x27;http://www.web2py.com/book/default/chapter/07&#x27;), (&lt;lazyT &#x27;Email and SMS&#x27;&gt;, False, &#x27;http://www.web2py.com/book/default/chapter/08&#x27;), (&lt;lazyT &#x27;Access Control&#x27;&gt;, False, &#x27;http://www.web2py.com/book/default/chapter/09&#x27;), (&lt;lazyT &#x27;Services&#x27;&gt;, False, &#x27;http://www.web2py.com/book/default/chapter/10&#x27;), (&lt;lazyT &#x27;Ajax Recipes&#x27;&gt;, False, &#x27;http://www.web2py.com/book/default/chapter/11&#x27;), (&lt;lazyT &#x27;Components and Plugins&#x27;&gt;, False, &#x27;http://www.web2py.com/book/default/chapter/12&#x27;), (&lt;lazyT &#x27;Deployment Recipes&#x27;&gt;, False, &#x27;http://www.web2py.com/book/default/chapter/13&#x27;), (&lt;lazyT &#x27;Other Recipes&#x27;&gt;, False, &#x27;http://www.web2py.com/book/default/chapter/14&#x27;), (&lt;lazyT &#x27;Buy this book&#x27;&gt;, False, &#x27;http://stores.lulu.com/web2py&#x27;)]</div></td></tr></table></div></td></tr><tr><td><div><table><tr><td><div>Community</div></td></tr><tr><td><div>False</div></td></tr><tr><td><div>None</div></td></tr><tr><td><div>[(&lt;lazyT &#x27;Groups&#x27;&gt;, False, &#x27;http://www.web2py.com/examples/default/usergroups&#x27;), (&lt;lazyT &#x27;Twitter&#x27;&gt;, False, &#x27;http://twitter.com/web2py&#x27;), (&lt;lazyT &#x27;Live Chat&#x27;&gt;, False, &#x27;http://webchat.freenode.net/?channels=web2py&#x27;)]</div></td></tr></table></div></td></tr><tr><td><div><table><tr><td><div>Plugins</div></td></tr><tr><td><div>False</div></td></tr><tr><td><div>None</div></td></tr><tr><td><div>[(&#x27;plugin_wiki&#x27;, False, &#x27;http://web2py.com/examples/default/download&#x27;), (&lt;lazyT &#x27;Other Plugins&#x27;&gt;, False, &#x27;http://web2py.com/plugins&#x27;), (&lt;lazyT &#x27;Layout Plugins&#x27;&gt;, False, &#x27;http://web2py.com/layouts&#x27;)]</div></td></tr></table></div></td></tr></table></div></td></tr></table></div></td></tr></table></div></td></tr><tr><td style="font-weight:bold;vertical-align:top;">meta</td><td style="vertical-align:top;">:</td><td><div><table><tr><td style="font-weight:bold;vertical-align:top;">author</td><td style="vertical-align:top;">:</td><td><div>Your Name &lt;you@example.com&gt;</div></td></tr><tr><td style="font-weight:bold;vertical-align:top;">description</td><td style="vertical-align:top;">:</td><td><div>a cool new app</div></td></tr><tr><td style="font-weight:bold;vertical-align:top;">generator</td><td style="vertical-align:top;">:</td><td><div>Web2py Web Framework</div></td></tr><tr><td style="font-weight:bold;vertical-align:top;">keywords</td><td style="vertical-align:top;">:</td><td><div>web2py, python, framework</div></td></tr></table></div></td></tr><tr><td style="font-weight:bold;vertical-align:top;">models_to_run</td><td style="vertical-align:top;">:</td><td><div><table><tr><td><div>^\\w+\\.py$</div></td></tr><tr><td><div>^default/\\w+\\.py$</div></td></tr><tr><td><div>^default/main/\\w+\\.py$</div></td></tr></table></div></td></tr><tr><td style="font-weight:bold;vertical-align:top;">postprocessing</td><td style="vertical-align:top;">:</td><td><div><table></table></div></td></tr><tr><td style="font-weight:bold;vertical-align:top;">session_client</td><td style="vertical-align:top;">:</td><td><div>127.0.0.1</div></td></tr><tr><td style="font-weight:bold;vertical-align:top;">session_cookie_compression_level</td><td style="vertical-align:top;">:</td><td><div>None</div></td></tr><tr><td style="font-weight:bold;vertical-align:top;">session_cookie_expires</td><td style="vertical-align:top;">:</td><td><div>None</div></td></tr><tr><td style="font-weight:bold;vertical-align:top;">session_cookie_key</td><td style="vertical-align:top;">:</td><td><div>None</div></td></tr><tr><td style="font-weight:bold;vertical-align:top;">session_data_name</td><td style="vertical-align:top;">:</td><td><div>session_data_note</div></td></tr><tr><td style="font-weight:bold;vertical-align:top;">session_file</td><td style="vertical-align:top;">:</td><td><div>&lt;open file &#x27;/ug/ug2k13/cse/kushal.singh/web2py/applications/Note/sessions/127.0.0.1-6e4d28b4-5f23-4cf3-b69c-384193bcaf8c&#x27;, mode &#x27;rb+&#x27; at 0xaf69f910&gt;</div></td></tr><tr><td style="font-weight:bold;vertical-align:top;">session_filename</td><td style="vertical-align:top;">:</td><td><div>/ug/ug2k13/cse/kushal.singh/web2py/applications/Note/sessions/127.0.0.1-6e4d28b4-5f23-4cf3-b69c-384193bcaf8c</div></td></tr><tr><td style="font-weight:bold;vertical-align:top;">session_hash</td><td style="vertical-align:top;">:</td><td><div>2dc93f8b3e49928b8294f8ab5f85fa67</div></td></tr><tr><td style="font-weight:bold;vertical-align:top;">session_id</td><td style="vertical-align:top;">:</td><td><div>127.0.0.1-6e4d28b4-5f23-4cf3-b69c-384193bcaf8c</div></td></tr><tr><td style="font-weight:bold;vertical-align:top;">session_id_name</td><td style="vertical-align:top;">:</td><td><div>session_id_note</div></td></tr><tr><td style="font-weight:bold;vertical-align:top;">session_locked</td><td style="vertical-align:top;">:</td><td><div>True</div></td></tr><tr><td style="font-weight:bold;vertical-align:top;">session_masterapp</td><td style="vertical-align:top;">:</td><td><div>Note</div></td></tr><tr><td style="font-weight:bold;vertical-align:top;">session_new</td><td style="vertical-align:top;">:</td><td><div>False</div></td></tr><tr><td style="font-weight:bold;vertical-align:top;">session_storage_type</td><td style="vertical-align:top;">:</td><td><div>file</div></td></tr><tr><td style="font-weight:bold;vertical-align:top;">status</td><td style="vertical-align:top;">:</td><td><div>200</div></td></tr><tr><td style="font-weight:bold;vertical-align:top;">subtitle</td><td style="vertical-align:top;">:</td><td><div></div></td></tr><tr><td style="font-weight:bold;vertical-align:top;">title</td><td style="vertical-align:top;">:</td><td><div>Note</div></td></tr><tr><td style="font-weight:bold;vertical-align:top;">view</td><td style="vertical-align:top;">:</td><td><div>default/main.html</div></td></tr></table></div>'
tRp250
sS'locals'
p251
(dp252
S'Service'
p253
S"<class 'gluon.tools.Service'>"
p254
sS'OBJECT'
p255
S"<class 'gluon.html.OBJECT'>"
p256
sS'SQLDB'
p257
S"<class 'gluon.dal.DAL'>"
p258
sg243
S"<Storage {'_user_agent': <Storage {'os': <Storag...orage {'version': '27.0', 'name': 'Firefox'}>}>}>"
p259
sS'LINK'
p260
S"<class 'gluon.html.LINK'>"
p261
sS'BR'
p262
S"<class 'gluon.html.BR'>"
p263
sS'local_import'
p264
S'<function <lambda>>'
p265
sS'OPTGROUP'
p266
S"<class 'gluon.html.OPTGROUP'>"
p267
sS'__package__'
p268
S'None'
p269
sS'PRE'
p270
S"<class 'gluon.html.PRE'>"
p271
sS'IS_INT_IN_RANGE'
p272
S"<class 'gluon.validators.IS_INT_IN_RANGE'>"
p273
sS'IS_LOWER'
p274
S"<class 'gluon.validators.IS_LOWER'>"
p275
sS'IS_STRONG'
p276
S"<class 'gluon.validators.IS_STRONG'>"
p277
sS'cache'
p278
S'<gluon.cache.Cache object>'
p279
sS'IS_IN_DB'
p280
S"<class 'gluon.validators.IS_IN_DB'>"
p281
sS'TAG'
p282
S'<gluon.html.__TAG__ object>'
p283
sS'SQLField'
p284
S"<class 'gluon.dal.Field'>"
p285
sS'mail'
p286
S'<gluon.tools.Mail object>'
p287
sS'BODY'
p288
S"<class 'gluon.html.BODY'>"
p289
sS'IS_DATE_IN_RANGE'
p290
S"<class 'gluon.validators.IS_DATE_IN_RANGE'>"
p291
sS'IFRAME'
p292
S"<class 'gluon.html.IFRAME'>"
p293
sS'URL'
p294
S'<function URL>'
p295
sS'__file__'
p296
S"'/ug/ug2k13/cse/kushal.singh/web2py/applications/Note/models/menu.py'"
p297
sS'db'
p298
S'<DAL uri="sqlite://storage.sqlite">'
p299
sS'auth'
p300
S'<gluon.tools.Auth object>'
p301
sS'P'
S"<class 'gluon.html.P'>"
p302
sS'TFOOT'
p303
S"<class 'gluon.html.TFOOT'>"
p304
sS'XHTML'
p305
S"<class 'gluon.html.XHTML'>"
p306
sS'ON'
p307
S'True'
p308
sS'OL'
p309
S"<class 'gluon.html.OL'>"
p310
sS'TEXTAREA'
p311
S"<class 'gluon.html.TEXTAREA'>"
p312
sS'MENU'
p313
S"<class 'gluon.html.MENU'>"
p314
sS'IS_IMAGE'
p315
S"<class 'gluon.validators.IS_IMAGE'>"
p316
sS'EM'
p317
S"<class 'gluon.html.EM'>"
p318
sS'CODE'
p319
S"<class 'gluon.html.CODE'>"
p320
sS'HTTP'
p321
S"<class 'gluon.http.HTTP'>"
p322
sS'HR'
p323
S"<class 'gluon.html.HR'>"
p324
sS'IS_DATETIME'
p325
S"<class 'gluon.validators.IS_DATETIME'>"
p326
sS'STYLE'
p327
S"<class 'gluon.html.STYLE'>"
p328
sS'LABEL'
p329
S"<class 'gluon.html.LABEL'>"
p330
sS'CLEANUP'
p331
S"<class 'gluon.validators.CLEANUP'>"
p332
sS'plugins'
p333
S'<gluon.tools.PluginManager object>'
p334
sS'SELECT'
p335
S"<class 'gluon.html.SELECT'>"
p336
sS'use_janrain'
p337
S'<function use_janrain>'
p338
sS'CENTER'
p339
S"<class 'gluon.html.CENTER'>"
p340
sS'prettydate'
p341
S'<function prettydate>'
p342
sS'Crud'
p343
S"<class 'gluon.tools.Crud'>"
p344
sS'Auth'
p345
S"<class 'gluon.tools.Auth'>"
p346
sS'DEVELOPMENT_MENU'
p347
g308
sS'__builtins__'
p348
S"{'ArithmeticError': <type 'exceptions.ArithmeticError'>, 'AssertionError': <type 'exceptions.AssertionError'>, 'AttributeError': <type 'exceptions.AttributeError'>, 'BaseException': <type 'exceptions.BaseException'>, 'BufferError': <type 'exceptions.BufferError'>, 'BytesWarning': <type 'exceptions.BytesWarning'>, 'DeprecationWarning': <type 'exceptions.DeprecationWarning'>, 'EOFError': <type 'exceptions.EOFError'>, 'Ellipsis': Ellipsis, 'EnvironmentError': <type 'exceptions.EnvironmentError'>, ...}"
p349
sS'HTML'
p350
S"<class 'gluon.html.HTML'>"
p351
sS'SQLFORM'
p352
S"<class 'gluon.sqlhtml.SQLFORM'>"
p353
sS'LOAD'
p354
S'<function LOAD>'
p355
sS'redirect'
p356
S'<function redirect>'
p357
sS'FIELDSET'
p358
S"<class 'gluon.html.FIELDSET'>"
p359
sS'IS_EQUAL_TO'
p360
S"<class 'gluon.validators.IS_EQUAL_TO'>"
p361
sS'embed64'
p362
S'<function embed64>'
p363
sS'IS_LIST_OF'
p364
S"<class 'gluon.validators.IS_LIST_OF'>"
p365
sS'INPUT'
p366
S"<class 'gluon.html.INPUT'>"
p367
sS'EMBED'
p368
S"<class 'gluon.html.EMBED'>"
p369
sS'_'
S'<function _>'
p370
sS'H2'
p371
S"<class 'gluon.html.H2'>"
p372
sS'H3'
p373
S"<class 'gluon.html.H3'>"
p374
sS'BUTTON'
p375
S"<class 'gluon.html.BUTTON'>"
p376
sS'H1'
p377
S"<class 'gluon.html.H1'>"
p378
sS'H6'
p379
S"<class 'gluon.html.H6'>"
p380
sS'H4'
p381
S"<class 'gluon.html.H4'>"
p382
sS'H5'
p383
S"<class 'gluon.html.H5'>"
p384
sS'UL'
p385
S"<class 'gluon.html.UL'>"
p386
sS'IS_UPPER'
p387
S"<class 'gluon.validators.IS_UPPER'>"
p388
sS'xmlescape'
p389
S'<function xmlescape>'
p390
sS'IS_TIME'
p391
S"<class 'gluon.validators.IS_TIME'>"
p392
sS'OPTION'
p393
S"<class 'gluon.html.OPTION'>"
p394
sS'TITLE'
p395
S"<class 'gluon.html.TITLE'>"
p396
sS'CRYPT'
p397
S"<class 'gluon.validators.CRYPT'>"
p398
sS'IS_EMPTY_OR'
p399
S"<class 'gluon.validators.IS_EMPTY_OR'>"
p400
sS'MARKMIN'
p401
S"<class 'gluon.html.MARKMIN'>"
p402
sS'__name__'
p403
S"'__restricted__'"
p404
sS'STRONG'
p405
S"<class 'gluon.html.STRONG'>"
p406
sS'COL'
p407
S"<class 'gluon.html.COL'>"
p408
sS'service'
p409
S'<gluon.tools.Service object>'
p410
sS'SCRIPT'
p411
S"<class 'gluon.html.SCRIPT'>"
p412
sS'TABLE'
p413
S"<class 'gluon.html.TABLE'>"
p414
sS'IS_IPV4'
p415
S"<class 'gluon.validators.IS_IPV4'>"
p416
sS'IS_LENGTH'
p417
S"<class 'gluon.validators.IS_LENGTH'>"
p418
sS'IS_IPV6'
p419
S"<class 'gluon.validators.IS_IPV6'>"
p420
sS'XML'
p421
S"<class 'gluon.html.XML'>"
p422
sS'B'
S"<class 'gluon.html.B'>"
p423
sS'IMG'
p424
S"<class 'gluon.html.IMG'>"
p425
sS'SQLTABLE'
p426
S"<class 'gluon.sqlhtml.SQLTABLE'>"
p427
sS'IS_MATCH'
p428
S"<class 'gluon.validators.IS_MATCH'>"
p429
sS'IS_ALPHANUMERIC'
p430
S"<class 'gluon.validators.IS_ALPHANUMERIC'>"
p431
sS'SPAN'
p432
S"<class 'gluon.html.SPAN'>"
p433
sS'IS_JSON'
p434
S"<class 'gluon.validators.IS_JSON'>"
p435
sS'IS_IPADDRESS'
p436
S"<class 'gluon.validators.IS_IPADDRESS'>"
p437
sS'IS_SLUG'
p438
S"<class 'gluon.validators.IS_SLUG'>"
p439
sS'BEAUTIFY'
p440
S"<class 'gluon.html.BEAUTIFY'>"
p441
sS'META'
p442
S"<class 'gluon.html.META'>"
p443
sS'IS_DATE'
p444
S"<class 'gluon.validators.IS_DATE'>"
p445
sS'IS_EMAIL'
p446
S"<class 'gluon.validators.IS_EMAIL'>"
p447
sS'IS_NOT_EMPTY'
p448
S"<class 'gluon.validators.IS_NOT_EMPTY'>"
p449
sS'IS_FLOAT_IN_RANGE'
p450
S"<class 'gluon.validators.IS_FLOAT_IN_RANGE'>"
p451
sS'TBODY'
p452
S"<class 'gluon.html.TBODY'>"
p453
sS'CAT'
p454
S"<class 'gluon.html.CAT'>"
p455
sS'Field'
p456
S"<class 'gluon.dal.Field'>"
p457
sS'IS_LIST_OF_EMAILS'
p458
S"<class 'gluon.validators.IS_LIST_OF_EMAILS'>"
p459
sS'DIV'
p460
S"<class 'gluon.html.DIV'>"
p461
sS'LEGEND'
p462
S"<class 'gluon.html.LEGEND'>"
p463
sS'COLGROUP'
p464
S"<class 'gluon.html.COLGROUP'>"
p465
sS'DAL'
p466
S"<class 'gluon.dal.DAL'>"
p467
sS'TT'
p468
S"<class 'gluon.html.TT'>"
p469
sS'TR'
p470
S"<class 'gluon.html.TR'>"
p471
sS'LI'
p472
S"<class 'gluon.html.LI'>"
p473
sS'TH'
p474
S"<class 'gluon.html.TH'>"
p475
sS'TD'
p476
S"<class 'gluon.html.TD'>"
p477
sS'PluginManager'
p478
S"<class 'gluon.tools.PluginManager'>"
p479
sS'IS_URL'
p480
S"<class 'gluon.validators.IS_URL'>"
p481
sS'A'
S"<class 'gluon.html.A'>"
p482
sS'HEAD'
p483
S"<class 'gluon.html.HEAD'>"
p484
sS'IS_DATETIME_IN_RANGE'
p485
S"<class 'gluon.validators.IS_DATETIME_IN_RANGE'>"
p486
sS'FORM'
p487
S"<class 'gluon.html.FORM'>"
p488
sS'I'
S"<class 'gluon.html.I'>"
p489
sS'crud'
p490
S'<gluon.tools.Crud object>'
p491
sS'IS_NOT_IN_DB'
p492
S"<class 'gluon.validators.IS_NOT_IN_DB'>"
p493
sg249
S"<Storage {'body': <cStringIO.StringO object at 0...bda> at 0xa0c2d84>, 'view': 'default/main.html'}>"
p494
sS'THEAD'
p495
S"<class 'gluon.html.THEAD'>"
p496
sS'ANY_OF'
p497
S"<class 'gluon.validators.ANY_OF'>"
p498
sS'IS_NULL_OR'
p499
S"<class 'gluon.validators.IS_EMPTY_OR'>"
p500
sg54
S"<Storage {'_vars': None, 'function': 'main', 'co...k13/cse/kushal.singh/web2py/applications/Note/'}>"
p501
sS'IS_EXPR'
p502
S"<class 'gluon.validators.IS_EXPR'>"
p503
sS'T'
S'<gluon.languages.translator object>'
p504
sS'IS_IN_SET'
p505
S"<class 'gluon.validators.IS_IN_SET'>"
p506
sS'IS_UPLOAD_FILENAME'
p507
S"<class 'gluon.validators.IS_UPLOAD_FILENAME'>"
p508
sS'IS_DECIMAL_IN_RANGE'
p509
S"<class 'gluon.validators.IS_DECIMAL_IN_RANGE'>"
p510
sssS'traceback'
p511
S'Traceback (most recent call last):\n  File "/ug/ug2k13/cse/kushal.singh/web2py/gluon/main.py", line 446, in wsgibase\n    serve_controller(request, response, session)\n  File "/ug/ug2k13/cse/kushal.singh/web2py/gluon/main.py", line 196, in serve_controller\n    run_view_in(response._view_environment)\n  File "/ug/ug2k13/cse/kushal.singh/web2py/gluon/compileapp.py", line 708, in run_view_in\n    context=environment)\n  File "/ug/ug2k13/cse/kushal.singh/web2py/gluon/template.py", line 790, in parse_template\n    return str(TemplateParser(text, context=context, path=path, lexers=lexers, delimiters=delimiters))\n  File "/ug/ug2k13/cse/kushal.singh/web2py/gluon/template.py", line 316, in __init__\n    self.parse(text)\n  File "/ug/ug2k13/cse/kushal.singh/web2py/gluon/template.py", line 761, in parse\n    self.extend(extend)\n  File "/ug/ug2k13/cse/kushal.singh/web2py/gluon/template.py", line 476, in extend\n    text = self._get_file_text(filename) or \'%sinclude%s\' % tuple(self.delimiters)\n  File "/ug/ug2k13/cse/kushal.singh/web2py/gluon/template.py", line 436, in _get_file_text\n    filename = eval(filename, context)\n  File "<string>", line 1, in <module>\nNameError: name \'layout\' is not defined\n'
p512
s.