(dp1
S'output'
p2
S"<type 'exceptions.IndexError'> list index out of range"
p3
sS'layer'
p4
S'/home/kushal/web2py/applications/Note/controllers/default.py'
p5
sS'code'
p6
S'# -*- coding: utf-8 -*-\n# this file is released under public domain and you can use without limitations\n\n#########################################################################\n## This is a sample controller\n## - index is the default action of any application\n## - user is required for authentication and authorization\n## - download is for downloading files uploaded in the db (does streaming)\n## - call exposes all registered services (none by default)\n#########################################################################\n\n\ndef index():\n    """\n    example action using the internationalization operator T and flash\n    rendered by views/default/index.html or views/generic.html\n\n    if you need a simple wiki simply replace the two lines below with:\n    return auth.wiki()\n    """\n    response.flash = T("Welcome to web2py!")\n    return dict(message=T(\'Hello World\'))\n\n\ndef user():\n    """\n    exposes:\n    http://..../[app]/default/user/login\n    http://..../[app]/default/user/logout\n    http://..../[app]/default/user/register\n    http://..../[app]/default/user/profile\n    http://..../[app]/default/user/retrieve_password\n    http://..../[app]/default/user/change_password\n    http://..../[app]/default/user/manage_users (requires membership in\n    use @auth.requires_login()\n        @auth.requires_membership(\'group name\')\n        @auth.requires_permission(\'read\',\'table name\',record_id)\n    to decorate functions that need access control\n    """\n    return dict(form=auth())\n\n@cache.action()\ndef download():\n    """\n    allows downloading of uploaded files\n    http://..../[app]/default/download/[filename]\n    """\n    return response.download(request, db)\n\n\ndef call():\n    """\n    exposes services. for example:\n    http://..../[app]/default/call/jsonrpc\n    decorate with @services.jsonrpc the functions to expose\n    supports xml, json, xmlrpc, jsonrpc, amfrpc, rss, csv\n    """\n    return service()\n\n\n@auth.requires_signature()\ndef data():\n    """\n    http://..../[app]/default/data/tables\n    http://..../[app]/default/data/create/[table]\n    http://..../[app]/default/data/read/[table]/[id]\n    http://..../[app]/default/data/update/[table]/[id]\n    http://..../[app]/default/data/delete/[table]/[id]\n    http://..../[app]/default/data/select/[table]\n    http://..../[app]/default/data/search/[table]\n    but URLs must be signed, i.e. linked with\n      A(\'table\',_href=URL(\'data/tables\',user_signature=True))\n    or with the signed load operator\n      LOAD(\'default\',\'data.load\',args=\'tables\',ajax=True,user_signature=True)\n    """\n    return dict(form=crud())\n\ndef table_update():\n    title = request.get_vars[\'Title\'];\n    info =request.get_vars[\'Info\'];\n    modified =request.get_vars[\'Modified\'];\n\n    db.Notes.insert(Title=title,Info=info,Modified=modified)\n\n\n    return dict(j="True")\n\ndef auto_suggestion():\n    suggestion=request.get_vars[\'sug\']\n    rows=db(db.Notes.Info.contains(suggestion)).select()\n    ans=\'{"names":[\'\n    count=0\n    for i in rows:\n        if(count!=0):\n          ans+= ","\n        ans+= \'"\'+ i["Title"] +\'"\'\n        count+=1\n    ans+= "]}"\n\n      \n    return dict(ans=ans)\n\ndef manage():  \n    rows=db(db.Request_arg.id>0).select()\n    for i in rows:\n        title=i["Arg1"]\n        j=title\n\n    title=db(db.Notes.Title.contains(title)).select()\n\n    for i in title:\n        content=title[0]\n        modified=title[1]\n\n    return dict(heading=j,content=content,modified=modified)\n\n\ndef secret():\n    ans=request.get_vars["head"]\n    db.Request_arg.truncate(\'RESTART IDENTITY CASCADE\')\n    db.Request_arg.insert(Arg1=ans)\n    return dict(ans=ans)\n\n#db(db.mytable.myfield.contains(\'text\')).select() \n# relational database \n#db(db.mytable.myfield.contains(\'text\')).select() \n\n    \ndef main():\n  return dict()\n\nresponse._vars=response._caller(manage)\n'
p7
sS'snapshot'
p8
(dp9
sS'traceback'
p10
S'Traceback (most recent call last):\n  File "/home/kushal/web2py/gluon/restricted.py", line 217, in restricted\n    exec ccode in environment\n  File "/home/kushal/web2py/applications/Note/controllers/default.py", line 132, in <module>\n  File "/home/kushal/web2py/gluon/globals.py", line 385, in <lambda>\n    self._caller = lambda f: f()\n  File "/home/kushal/web2py/applications/Note/controllers/default.py", line 113, in manage\n    modified=title[1]\n  File "/home/kushal/web2py/gluon/dal.py", line 10767, in __getitem__\n    row = self.records[i]\nIndexError: list index out of range\n'
p11
s.