(dp1
S'output'
p2
S"<type 'exceptions.SyntaxError'> invalid syntax (index.html, line 3)"
p3
sS'layer'
p4
S'/home/kushal/skynote/web2py/applications/notepad/views/default/index.html'
p5
sS'code'
p6
S'response.write(\'<!DOCTYPE html>\\n<html lang="en">\\n  <head>\\n    <meta charset="utf-8">\\n    <meta http-equiv="X-UA-Compatible" content="IE=edge">\\n    <meta name="viewport" content="width=device-width, initial-scale=1.0">\\n    <meta name="description" content="">\\n    <meta name="author" content="">\\n\\n    <title>Bolt - Free Bootstrap 3 Theme</title>\\n\\n    <!-- Bootstrap core CSS -->\\n    \', escape=False)\nresponse.files.insert(0,URL(\'static\',\'css/bootstrap.css\'))\n<!-- Custom styles for this template -->\n{{response.files.insert(1,URL(\'static\',\'css/main.css\'))\n{{response.files.insert(2,URL(\'static\',\'css/font-awesome.min.css\'))\n<script src="https://code.jquery.com/jquery-1.10.2.min.js"></script>\n<script src="{{=URL(\'static\',\'js/chart.js\')\nresponse.write(\'"></script>\\n\\n\\n    <!-- HTML5 shim and Respond.js IE8 support of HTML5 elements and media queries -->\\n    <!--[if lt IE 9]>\\n      <script src="https://oss.maxcdn.com/libs/html5shiv/3.7.0/html5shiv.js"></script>\\n      <script src="https://oss.maxcdn.com/libs/respond.js/1.3.0/respond.min.js"></script>\\n    <![endif]-->\\n  </head>\\n\\n  <body>\\n\\n    <!-- Fixed navbar -->\\n    <div class="navbar navbar-default navbar-fixed-top">\\n      <div class="container">\\n        <div class="navbar-header">\\n          <button type="button" class="navbar-toggle" data-toggle="collapse" data-target=".navbar-collapse">\\n            <span class="icon-bar"></span>\\n            <span class="icon-bar"></span>\\n            <span class="icon-bar"></span>\\n          </button>\\n          <a class="navbar-brand" href="#"><i class="fa fa-bolt"></i></a>\\n        </div>\\n        <div class="navbar-collapse collapse">\\n          <ul class="nav navbar-nav navbar-right">\\n            <li class="active"><a href="#contact">Contact</a></li>\\n          </ul>\\n        </div><!--/.nav-collapse -->\\n      </div>\\n    </div>\\n\\n\\n\\t<div id="hello">\\n\\t    <div class="container">\\n\\t    \\t<div class="row">\\n\\t    \\t\\t<div class="col-lg-8 col-lg-offset-2 centered">\\n\\t    \\t\\t\\t<h1>Bolt Theme</h1>\\n\\t    \\t\\t\\t<h2>FREE BOOTSTRAP THEMES</h2>\\n\\t    \\t\\t</div><!-- /col-lg-8 -->\\n\\t    \\t</div><!-- /row -->\\n\\t    </div> <!-- /container -->\\n\\t</div><!-- /hello -->\\n\\t\\n\\t<div id="green">\\n\\t\\t<div class="container">\\n\\t\\t\\t<div class="row">\\n\\t\\t\\t\\t<div class="col-lg-5 centered">\\n\\t\\t\\t\\t\\t<img src="assets/img/iphone.png" alt="">\\n\\t\\t\\t\\t</div>\\n\\t\\t\\t\\t\\n\\t\\t\\t\\t<div class="col-lg-7 centered">\\n\\t\\t\\t\\t\\t<h3>WHAT WE CAN DO?</h3>\\n\\t\\t\\t\\t\\t<p>Lorem Ipsum is simply dummy text of the printing and typesetting industry. Lorem Ipsum has been the industry\\\'s standard dummy text ever since the 1500s, when an unknown printer took a galley of type and scrambled it to make a type specimen book.</p>\\n\\t\\t\\t\\t</div>\\n\\t\\t\\t</div>\\n\\t\\t</div>\\n\\t</div>\\n\\t\\n\\t<div class="container">\\n\\t\\t<div class="row centered mt grid">\\n\\t\\t\\t<h3>OUR LATEST WORK</h3>\\n\\t\\t\\t<div class="mt"></div>\\n\\t\\t\\t<div class="col-lg-4">\\n\\t\\t\\t\\t<a href="#"><img src="assets/img/01.jpg" alt=""></a>\\n\\t\\t\\t</div>\\n\\t\\t\\t<div class="col-lg-4">\\n\\t\\t\\t\\t<a href="#"><img src="assets/img/02.jpg" alt=""></a>\\n\\t\\t\\t</div>\\n\\t\\t\\t<div class="col-lg-4">\\n\\t\\t\\t\\t<a href="#"><img src="assets/img/03.jpg" alt=""></a>\\n\\t\\t\\t</div>\\n\\t\\t</div>\\n\\t\\t\\n\\t\\t<div class="row centered mt grid">\\n\\t\\t\\t<div class="mt"></div>\\t\\t\\n\\t\\t\\t<div class="col-lg-4">\\n\\t\\t\\t\\t<a href="#"><img src="assets/img/04.jpg" alt=""></a>\\n\\t\\t\\t</div>\\n\\t\\t\\t<div class="col-lg-4">\\n\\t\\t\\t\\t<a href="#"><img src="assets/img/05.jpg" alt=""></a>\\n\\t\\t\\t</div>\\n\\t\\t\\t<div class="col-lg-4">\\n\\t\\t\\t\\t<a href="#"><img src="assets/img/06.jpg" alt=""></a>\\n\\t\\t\\t</div>\\n\\t\\t</div>\\n\\t\\t\\n\\t\\t<div class="row mt centered">\\n\\t\\t\\t<div class="col-lg-7 col-lg-offset-1 mt">\\n\\t\\t\\t\\t\\t<p class="lead">Lorem Ipsum is simply dummy text of the printing and typesetting industry. Lorem Ipsum has been the industry\\\'s standard dummy text ever.</p>\\n\\t\\t\\t</div>\\n\\t\\t\\t\\n\\t\\t\\t<div class="col-lg-3 mt">\\n\\t\\t\\t\\t<p><button type="button" class="btn btn-theme btn-lg">Email Me!</button></p>\\n\\t\\t\\t</div>\\n\\t\\t</div>\\n\\t</div>\\n\\n\\n\\t<div id="skills">\\n\\t\\t<div class="container">\\n\\t\\t\\t<div class="row centered">\\n\\t\\t\\t\\t<h3>OUR SKILLS</h3>\\n\\t\\t\\t\\t<div class="col-lg-3 mt">\\n\\t\\t\\t\\t\\t<canvas id="javascript" height="130" width="130"></canvas>\\n\\t\\t\\t\\t\\t<p>Javascript</p>\\n\\t\\t\\t\\t\\t<br>\\n\\t\\t\\t\\t\\t<script>\\n\\t\\t\\t\\t\\t\\tvar doughnutData = [\\n\\t\\t\\t\\t\\t\\t\\t\\t{\\n\\t\\t\\t\\t\\t\\t\\t\\t\\tvalue: 70,\\n\\t\\t\\t\\t\\t\\t\\t\\t\\tcolor:"#74cfae"\\n\\t\\t\\t\\t\\t\\t\\t\\t},\\n\\t\\t\\t\\t\\t\\t\\t\\t{\\n\\t\\t\\t\\t\\t\\t\\t\\t\\tvalue : 30,\\n\\t\\t\\t\\t\\t\\t\\t\\t\\tcolor : "#3c3c3c"\\n\\t\\t\\t\\t\\t\\t\\t\\t}\\n\\t\\t\\t\\t\\t\\t\\t];\\n\\t\\t\\t\\t\\t\\t\\tvar myDoughnut = new Chart(document.getElementById("javascript").getContext("2d")).Doughnut(doughnutData);\\n\\t\\t\\t\\t\\t</script>\\n\\t\\t\\t\\t</div>\\n\\t\\t\\t\\t<div class="col-lg-3 mt">\\n\\t\\t\\t\\t\\t<canvas id="bootstrap" height="130" width="130"></canvas>\\n\\t\\t\\t\\t\\t<p>Bootstrap</p>\\n\\t\\t\\t\\t\\t<br>\\n\\t\\t\\t\\t\\t<script>\\n\\t\\t\\t\\t\\t\\tvar doughnutData = [\\n\\t\\t\\t\\t\\t\\t\\t\\t{\\n\\t\\t\\t\\t\\t\\t\\t\\t\\tvalue: 90,\\n\\t\\t\\t\\t\\t\\t\\t\\t\\tcolor:"#74cfae"\\n\\t\\t\\t\\t\\t\\t\\t\\t},\\n\\t\\t\\t\\t\\t\\t\\t\\t{\\n\\t\\t\\t\\t\\t\\t\\t\\t\\tvalue : 10,\\n\\t\\t\\t\\t\\t\\t\\t\\t\\tcolor : "#3c3c3c"\\n\\t\\t\\t\\t\\t\\t\\t\\t}\\n\\t\\t\\t\\t\\t\\t\\t];\\n\\t\\t\\t\\t\\t\\t\\tvar myDoughnut = new Chart(document.getElementById("bootstrap").getContext("2d")).Doughnut(doughnutData);\\n\\t\\t\\t\\t\\t</script>\\n\\t\\t\\t\\t</div>\\n\\t\\t\\t\\t<div class="col-lg-3 mt">\\n\\t\\t\\t\\t\\t<canvas id="wordpress" height="130" width="130"></canvas>\\n\\t\\t\\t\\t\\t<p>Wordpress</p>\\n\\t\\t\\t\\t\\t<br>\\n\\t\\t\\t\\t\\t<script>\\n\\t\\t\\t\\t\\t\\tvar doughnutData = [\\n\\t\\t\\t\\t\\t\\t\\t\\t{\\n\\t\\t\\t\\t\\t\\t\\t\\t\\tvalue: 65,\\n\\t\\t\\t\\t\\t\\t\\t\\t\\tcolor:"#74cfae"\\n\\t\\t\\t\\t\\t\\t\\t\\t},\\n\\t\\t\\t\\t\\t\\t\\t\\t{\\n\\t\\t\\t\\t\\t\\t\\t\\t\\tvalue : 35,\\n\\t\\t\\t\\t\\t\\t\\t\\t\\tcolor : "#3c3c3c"\\n\\t\\t\\t\\t\\t\\t\\t\\t}\\n\\t\\t\\t\\t\\t\\t\\t];\\n\\t\\t\\t\\t\\t\\t\\tvar myDoughnut = new Chart(document.getElementById("wordpress").getContext("2d")).Doughnut(doughnutData);\\n\\t\\t\\t\\t\\t</script>\\n\\t\\t\\t\\t</div>\\n\\t\\t\\t\\t<div class="col-lg-3 mt">\\n\\t\\t\\t\\t\\t<canvas id="photoshop" height="130" width="130"></canvas>\\n\\t\\t\\t\\t\\t<p>Photoshop</p>\\n\\t\\t\\t\\t\\t<br>\\n\\t\\t\\t\\t\\t<script>\\n\\t\\t\\t\\t\\t\\tvar doughnutData = [\\n\\t\\t\\t\\t\\t\\t\\t\\t{\\n\\t\\t\\t\\t\\t\\t\\t\\t\\tvalue: 50,\\n\\t\\t\\t\\t\\t\\t\\t\\t\\tcolor:"#74cfae"\\n\\t\\t\\t\\t\\t\\t\\t\\t},\\n\\t\\t\\t\\t\\t\\t\\t\\t{\\n\\t\\t\\t\\t\\t\\t\\t\\t\\tvalue : 50,\\n\\t\\t\\t\\t\\t\\t\\t\\t\\tcolor : "#3c3c3c"\\n\\t\\t\\t\\t\\t\\t\\t\\t}\\n\\t\\t\\t\\t\\t\\t\\t];\\n\\t\\t\\t\\t\\t\\t\\tvar myDoughnut = new Chart(document.getElementById("photoshop").getContext("2d")).Doughnut(doughnutData);\\n\\t\\t\\t\\t\\t</script>\\n\\t\\t\\t\\t</div>\\n\\t\\t\\t</div><!-- /row -->\\n\\t\\t</div><!-- /container -->\\n\\t</div><!-- /skills -->\\n\\t\\n\\t<section id="contact"></section>\\n\\t<div id="social">\\n\\t\\t<div class="container">\\n\\t\\t\\t<div class="row centered">\\n\\t\\t\\t\\t<div class="col-lg-8 col-lg-offset-2">\\n\\t\\t\\t\\t\\t<div class="col-md-3">\\n\\t\\t\\t\\t\\t\\t<a href="#"><i class="fa fa-facebook"></i></a>\\n\\t\\t\\t\\t\\t</div>\\n\\t\\t\\t\\t\\t<div class="col-md-3">\\n\\t\\t\\t\\t\\t\\t<a href="#"><i class="fa fa-dribbble"></i></a>\\n\\t\\t\\t\\t\\t</div>\\n\\t\\t\\t\\t\\t<div class="col-md-3">\\n\\t\\t\\t\\t\\t\\t<a href="#"><i class="fa fa-twitter"></i></a>\\n\\t\\t\\t\\t\\t</div>\\n\\t\\t\\t\\t\\t<div class="col-md-3">\\n\\t\\t\\t\\t\\t\\t<a href="#"><i class="fa fa-envelope"></i></a>\\n\\t\\t\\t\\t\\t</div>\\n\\t\\t\\t\\t</div>\\n\\t\\t\\t</div>\\n\\t\\t</div><!-- /container -->\\n\\t</div><!-- /social -->\\n\\n\\n\\t<div id="f">\\n\\t\\t<div class="container">\\n\\t\\t\\t<div class="row">\\n\\t\\t\\t\\t<p>Crafted with <i class="fa fa-heart"></i> by BlackTie.co.</p>\\n\\t\\t\\t</div>\\n\\t\\t</div>\\n\\t</div>\\n\\n    <!-- Bootstrap core JavaScript\\n    ================================================== -->\\n    <!-- Placed at the end of the document so the pages load faster -->\\n    <script src="assets/js/bootstrap.js"></script>\\n  </body>\\n</html>\\n\', escape=False)'
p7
sS'snapshot'
p8
(dp9
S'exception'
p10
(dp11
S'__getslice__'
p12
S"<method-wrapper '__getslice__' of exceptions.SyntaxError object>"
p13
sS'text'
p14
S"'<!-- Custom styles for this template -->\\n'"
p15
sS'__str__'
p16
S"<method-wrapper '__str__' of exceptions.SyntaxError object>"
p17
sS'__reduce__'
p18
S'<built-in method __reduce__ of exceptions.SyntaxError object>'
p19
sS'__dict__'
p20
S'{}'
p21
sS'__sizeof__'
p22
S'<built-in method __sizeof__ of exceptions.SyntaxError object>'
p23
sS'__init__'
p24
S"<method-wrapper '__init__' of exceptions.SyntaxError object>"
p25
sS'__setattr__'
p26
S"<method-wrapper '__setattr__' of exceptions.SyntaxError object>"
p27
sS'__reduce_ex__'
p28
S'<built-in method __reduce_ex__ of exceptions.SyntaxError object>'
p29
sS'__new__'
p30
S'<built-in method __new__ of type object>'
p31
sS'__format__'
p32
S'<built-in method __format__ of exceptions.SyntaxError object>'
p33
sS'__class__'
p34
S"<type 'exceptions.SyntaxError'>"
p35
sS'filename'
p36
S"'/home/kushal/skynote/web2py/applications/notepad/views/default/index.html'"
p37
sS'lineno'
p38
S'3'
sS'msg'
p39
S"'invalid syntax'"
p40
sS'__doc__'
p41
S"'Invalid syntax.'"
p42
sS'__getitem__'
p43
S"<method-wrapper '__getitem__' of exceptions.SyntaxError object>"
p44
sS'__setstate__'
p45
S'<built-in method __setstate__ of exceptions.SyntaxError object>'
p46
sS'__getattribute__'
p47
S"<method-wrapper '__getattribute__' of exceptions.SyntaxError object>"
p48
sS'print_file_and_line'
p49
S'None'
p50
sS'args'
p51
S"('invalid syntax', ('/home/kushal/skynote/web2py/applications/notepad/views/default/index.html', 3, 1, '<!-- Custom styles for this template -->\\n'))"
p52
sS'__subclasshook__'
p53
S'<built-in method __subclasshook__ of type object>'
p54
sS'offset'
p55
S'1'
sS'__unicode__'
p56
S'<built-in method __unicode__ of exceptions.SyntaxError object>'
p57
sS'__delattr__'
p58
S"<method-wrapper '__delattr__' of exceptions.SyntaxError object>"
p59
sS'__repr__'
p60
S"<method-wrapper '__repr__' of exceptions.SyntaxError object>"
p61
sS'__hash__'
p62
S"<method-wrapper '__hash__' of exceptions.SyntaxError object>"
p63
ssS'evalue'
p64
S'invalid syntax (index.html, line 3)'
p65
sS'request'
p66
cgluon.html
XML_unpickle
p67
(S'swd\x00\x00<div><table><tr><td style="font-weight:bold;vertical-align:top;">ajax</td><td style="vertical-align:top;">:</td><td><div>False</div></td></tr><tr><td style="font-weight:bold;vertical-align:top;">application</td><td style="vertical-align:top;">:</td><td><div>notepad</div></td></tr><tr><td style="font-weight:bold;vertical-align:top;">args</td><td style="vertical-align:top;">:</td><td><div><table></table></div></td></tr><tr><td style="font-weight:bold;vertical-align:top;">cid</td><td style="vertical-align:top;">:</td><td><div>None</div></td></tr><tr><td style="font-weight:bold;vertical-align:top;">client</td><td style="vertical-align:top;">:</td><td><div>127.0.0.1</div></td></tr><tr><td style="font-weight:bold;vertical-align:top;">controller</td><td style="vertical-align:top;">:</td><td><div>default</div></td></tr><tr><td style="font-weight:bold;vertical-align:top;">cookies</td><td style="vertical-align:top;">:</td><td><div><table><tr><td style="font-weight:bold;vertical-align:top;">fbsr_227235817483297</td><td style="vertical-align:top;">:</td><td><div>Bzs0-KeLqcTVA0tNegRWq5UkquRqTAx99eY94b9eKtw.eyJhbGdvcml0aG0iOiJITUFDLVNIQTI1NiIsImNvZGUiOiJBUUJqMkJKUEJJZ0FTRnJGWHZDZ1lLLWtZOFBQQW4tNWs0NmxPZERDSnY1RkJFNUlSVWluTkluRTJRT0NSREY1d0ZCOEVsdm5mS003TmxEMWFGelZmNjhiV19WdmE2TlVfbERvQk55Qkk2THdVaUpNLU12NERhSlk0NXI2VGg2LTBaS2FXNFBWdG5zbUd5U3FFMG10RkZDNjV0VkwtOHVSOW1tZ2RiU0V3Z3lMTkRSZFBWOHo3enlPOU4tekI2RURNSWcwcDNRZzJPZG83V3VJLW9tamdXV0t1VndkUFB2NDJLRHNNV3FNbXltWHc3SnZWdGlSZnQ0RDV5ZmhKY1dfSU9RdXZLMEM4TmFlTnlKSVNXN2l2eG1HN1JOc0tDSjlFVjRHQ0hyeXUyYUZ3aTlOV1F1OGY4VzJfUml5RkY3X2dxb2VuM0ZJNGN6SlR6MkxCMmszZTc0OCIsImlzc3VlZF9hdCI6MTM5NjQyNjkxMywidXNlcl9pZCI6IjEwMDAwMTU4NTUwMjIyMSJ9<table><tr><td style="font-weight:bold;vertical-align:top;">comment</td><td style="vertical-align:top;">:</td><td><div></div></td></tr><tr><td style="font-weight:bold;vertical-align:top;">domain</td><td style="vertical-align:top;">:</td><td><div></div></td></tr><tr><td style="font-weight:bold;vertical-align:top;">expires</td><td style="vertical-align:top;">:</td><td><div></div></td></tr><tr><td style="font-weight:bold;vertical-align:top;">httponly</td><td style="vertical-align:top;">:</td><td><div></div></td></tr><tr><td style="font-weight:bold;vertical-align:top;">max-age</td><td style="vertical-align:top;">:</td><td><div></div></td></tr><tr><td style="font-weight:bold;vertical-align:top;">path</td><td style="vertical-align:top;">:</td><td><div></div></td></tr><tr><td style="font-weight:bold;vertical-align:top;">secure</td><td style="vertical-align:top;">:</td><td><div></div></td></tr><tr><td style="font-weight:bold;vertical-align:top;">version</td><td style="vertical-align:top;">:</td><td><div></div></td></tr></table></div></td></tr><tr><td style="font-weight:bold;vertical-align:top;">session_id_admin</td><td style="vertical-align:top;">:</td><td><div>127.0.0.1-6b6e6bf8-ef97-4ca7-9c35-2f5418b6e416<table><tr><td style="font-weight:bold;vertical-align:top;">comment</td><td style="vertical-align:top;">:</td><td><div></div></td></tr><tr><td style="font-weight:bold;vertical-align:top;">domain</td><td style="vertical-align:top;">:</td><td><div></div></td></tr><tr><td style="font-weight:bold;vertical-align:top;">expires</td><td style="vertical-align:top;">:</td><td><div></div></td></tr><tr><td style="font-weight:bold;vertical-align:top;">httponly</td><td style="vertical-align:top;">:</td><td><div></div></td></tr><tr><td style="font-weight:bold;vertical-align:top;">max-age</td><td style="vertical-align:top;">:</td><td><div></div></td></tr><tr><td style="font-weight:bold;vertical-align:top;">path</td><td style="vertical-align:top;">:</td><td><div></div></td></tr><tr><td style="font-weight:bold;vertical-align:top;">secure</td><td style="vertical-align:top;">:</td><td><div></div></td></tr><tr><td style="font-weight:bold;vertical-align:top;">version</td><td style="vertical-align:top;">:</td><td><div></div></td></tr></table></div></td></tr><tr><td style="font-weight:bold;vertical-align:top;">session_id_fb</td><td style="vertical-align:top;">:</td><td><div>127.0.0.1-b9955c70-4449-4561-9c19-2461be3cf7f1<table><tr><td style="font-weight:bold;vertical-align:top;">comment</td><td style="vertical-align:top;">:</td><td><div></div></td></tr><tr><td style="font-weight:bold;vertical-align:top;">domain</td><td style="vertical-align:top;">:</td><td><div></div></td></tr><tr><td style="font-weight:bold;vertical-align:top;">expires</td><td style="vertical-align:top;">:</td><td><div></div></td></tr><tr><td style="font-weight:bold;vertical-align:top;">httponly</td><td style="vertical-align:top;">:</td><td><div></div></td></tr><tr><td style="font-weight:bold;vertical-align:top;">max-age</td><td style="vertical-align:top;">:</td><td><div></div></td></tr><tr><td style="font-weight:bold;vertical-align:top;">path</td><td style="vertical-align:top;">:</td><td><div></div></td></tr><tr><td style="font-weight:bold;vertical-align:top;">secure</td><td style="vertical-align:top;">:</td><td><div></div></td></tr><tr><td style="font-weight:bold;vertical-align:top;">version</td><td style="vertical-align:top;">:</td><td><div></div></td></tr></table></div></td></tr><tr><td style="font-weight:bold;vertical-align:top;">session_id_notepad</td><td style="vertical-align:top;">:</td><td><div>127.0.0.1-d2066106-3c02-42c1-b4e0-7e160e670a5a<table><tr><td style="font-weight:bold;vertical-align:top;">comment</td><td style="vertical-align:top;">:</td><td><div></div></td></tr><tr><td style="font-weight:bold;vertical-align:top;">domain</td><td style="vertical-align:top;">:</td><td><div></div></td></tr><tr><td style="font-weight:bold;vertical-align:top;">expires</td><td style="vertical-align:top;">:</td><td><div></div></td></tr><tr><td style="font-weight:bold;vertical-align:top;">httponly</td><td style="vertical-align:top;">:</td><td><div></div></td></tr><tr><td style="font-weight:bold;vertical-align:top;">max-age</td><td style="vertical-align:top;">:</td><td><div></div></td></tr><tr><td style="font-weight:bold;vertical-align:top;">path</td><td style="vertical-align:top;">:</td><td><div></div></td></tr><tr><td style="font-weight:bold;vertical-align:top;">secure</td><td style="vertical-align:top;">:</td><td><div></div></td></tr><tr><td style="font-weight:bold;vertical-align:top;">version</td><td style="vertical-align:top;">:</td><td><div></div></td></tr></table></div></td></tr></table></div></td></tr><tr><td style="font-weight:bold;vertical-align:top;">env</td><td style="vertical-align:top;">:</td><td><div><table><tr><td style="font-weight:bold;vertical-align:top;">HTTP_ACCEPT</td><td style="vertical-align:top;">:</td><td><div>text/html,application/xhtml+xml,application/xml;q=0.9,*/*;q=0.8</div></td></tr><tr><td style="font-weight:bold;vertical-align:top;">HTTP_ACCEPT_ENCODING</td><td style="vertical-align:top;">:</td><td><div>gzip, deflate</div></td></tr><tr><td style="font-weight:bold;vertical-align:top;">HTTP_ACCEPT_LANGUAGE</td><td style="vertical-align:top;">:</td><td><div>en-US,en;q=0.5</div></td></tr><tr><td style="font-weight:bold;vertical-align:top;">HTTP_CONNECTION</td><td style="vertical-align:top;">:</td><td><div>keep-alive</div></td></tr><tr><td style="font-weight:bold;vertical-align:top;">HTTP_COOKIE</td><td style="vertical-align:top;">:</td><td><div>session_id_fb=127.0.0.1-b9955c70-4449-4561-9c19-2461be3cf7f1; fbsr_227235817483297=Bzs0-KeLqcTVA0tNegRWq5UkquRqTAx99eY94b9eKtw.eyJhbGdvcml0aG0iOiJITUFDLVNIQTI1NiIsImNvZGUiOiJBUUJqMkJKUEJJZ0FTRnJGWHZDZ1lLLWtZOFBQQW4tNWs0NmxPZERDSnY1RkJFNUlSVWluTkluRTJRT0NSREY1d0ZCOEVsdm5mS003TmxEMWFGelZmNjhiV19WdmE2TlVfbERvQk55Qkk2THdVaUpNLU12NERhSlk0NXI2VGg2LTBaS2FXNFBWdG5zbUd5U3FFMG10RkZDNjV0VkwtOHVSOW1tZ2RiU0V3Z3lMTkRSZFBWOHo3enlPOU4tekI2RURNSWcwcDNRZzJPZG83V3VJLW9tamdXV0t1VndkUFB2NDJLRHNNV3FNbXltWHc3SnZWdGlSZnQ0RDV5ZmhKY1dfSU9RdXZLMEM4TmFlTnlKSVNXN2l2eG1HN1JOc0tDSjlFVjRHQ0hyeXUyYUZ3aTlOV1F1OGY4VzJfUml5RkY3X2dxb2VuM0ZJNGN6SlR6MkxCMmszZTc0OCIsImlzc3VlZF9hdCI6MTM5NjQyNjkxMywidXNlcl9pZCI6IjEwMDAwMTU4NTUwMjIyMSJ9; session_id_notepad=127.0.0.1-d2066106-3c02-42c1-b4e0-7e160e670a5a; session_id_admin=127.0.0.1-6b6e6bf8-ef97-4ca7-9c35-2f5418b6e416</div></td></tr><tr><td style="font-weight:bold;vertical-align:top;">HTTP_HOST</td><td style="vertical-align:top;">:</td><td><div>localhost:8000</div></td></tr><tr><td style="font-weight:bold;vertical-align:top;">HTTP_USER_AGENT</td><td style="vertical-align:top;">:</td><td><div>Mozilla/5.0 (X11; Ubuntu; Linux i686; rv:28.0) Gecko/20100101 Firefox/28.0</div></td></tr><tr><td style="font-weight:bold;vertical-align:top;">PATH_INFO</td><td style="vertical-align:top;">:</td><td><div>/notepad/default/index.html</div></td></tr><tr><td style="font-weight:bold;vertical-align:top;">QUERY_STRING</td><td style="vertical-align:top;">:</td><td><div></div></td></tr><tr><td style="font-weight:bold;vertical-align:top;">REMOTE_ADDR</td><td style="vertical-align:top;">:</td><td><div>127.0.0.1</div></td></tr><tr><td style="font-weight:bold;vertical-align:top;">REMOTE_PORT</td><td style="vertical-align:top;">:</td><td><div>61000</div></td></tr><tr><td style="font-weight:bold;vertical-align:top;">REQUEST_METHOD</td><td style="vertical-align:top;">:</td><td><div>GET</div></td></tr><tr><td style="font-weight:bold;vertical-align:top;">SCRIPT_NAME</td><td style="vertical-align:top;">:</td><td><div></div></td></tr><tr><td style="font-weight:bold;vertical-align:top;">SERVER_NAME</td><td style="vertical-align:top;">:</td><td><div>kushal-Inspiron-3521</div></td></tr><tr><td style="font-weight:bold;vertical-align:top;">SERVER_PORT</td><td style="vertical-align:top;">:</td><td><div>8000</div></td></tr><tr><td style="font-weight:bold;vertical-align:top;">SERVER_PROTOCOL</td><td style="vertical-align:top;">:</td><td><div>HTTP/1.1</div></td></tr><tr><td style="font-weight:bold;vertical-align:top;">SERVER_SOFTWARE</td><td style="vertical-align:top;">:</td><td><div>Rocket 1.2.6</div></td></tr><tr><td style="font-weight:bold;vertical-align:top;">app_folders</td><td style="vertical-align:top;">:</td><td><div>set([&#x27;/home/kushal/skynote/web2py/applications/admin/&#x27;, &#x27;/home/kushal/skynote/web2py/applications/notepad/&#x27;, &#x27;/home/kushal/skynote/web2py/applications/fb/&#x27;])</div></td></tr><tr><td style="font-weight:bold;vertical-align:top;">applications_parent</td><td style="vertical-align:top;">:</td><td><div>/home/kushal/skynote/web2py</div></td></tr><tr><td style="font-weight:bold;vertical-align:top;">cmd_args</td><td style="vertical-align:top;">:</td><td><div><table></table></div></td></tr><tr><td style="font-weight:bold;vertical-align:top;">cmd_options</td><td style="vertical-align:top;">:</td><td><div>&lt;Values at 0x8aa984c: {&#x27;verbose&#x27;: False, &#x27;ip&#x27;: &#x27;127.0.0.1&#x27;, &#x27;debuglevel&#x27;: 30, &#x27;with_scheduler&#x27;: False, &#x27;ips&#x27;: [&#x27;127.0.1.1&#x27;], &#x27;shutdown_timeout&#x27;: 5, &#x27;taskbar&#x27;: False, &#x27;with_coverage&#x27;: False, &#x27;port&#x27;: 8000, &#x27;maxthreads&#x27;: None, &#x27;softcron&#x27;: False, &#x27;server_name&#x27;: &#x27;kushal-Inspiron-3521&#x27;, &#x27;bpython&#x27;: False, &#x27;nogui&#x27;: True, &#x27;pid_filename&#x27;: &#x27;httpserver.pid&#x27;, &#x27;extcron&#x27;: False, &#x27;runcron&#x27;: False, &#x27;run_system_tests&#x27;: False, &#x27;test&#x27;: None, &#x27;folder&#x27;: &#x27;/home/kushal/skynote/web2py&#x27;, &#x27;config&#x27;: &#x27;&#x27;, &#x27;minthreads&#x27;: None, &#x27;shell&#x27;: None, &#x27;run&#x27;: &#x27;&#x27;, &#x27;log_filename&#x27;: &#x27;httpserver.log&#x27;, &#x27;profiler_dir&#x27;: None, &#x27;args&#x27;: [&#x27;&#x27;], &#x27;socket_timeout&#x27;: 5, &#x27;ssl_ca_certificate&#x27;: None, &#x27;scheduler&#x27;: None, &#x27;interfaces&#x27;: None, &#x27;ssl_private_key&#x27;: &#x27;&#x27;, &#x27;scheduler_groups&#x27;: None, &#x27;password&#x27;: &#x27;iiit123&#x27;, &#x27;request_queue_size&#x27;: 5, &#x27;ssl_certificate&#x27;: &#x27;&#x27;, &#x27;cronjob&#x27;: False, &#x27;numthreads&#x27;: None, &#x27;quiet&#x27;: False, &#x27;import_models&#x27;: False, &#x27;timeout&#x27;: 10, &#x27;plain&#x27;: False, &#x27;nobanner&#x27;: False}&gt;</div></td></tr><tr><td style="font-weight:bold;vertical-align:top;">db_sessions</td><td style="vertical-align:top;">:</td><td><div>set([])</div></td></tr><tr><td style="font-weight:bold;vertical-align:top;">debugging</td><td style="vertical-align:top;">:</td><td><div>False</div></td></tr><tr><td style="font-weight:bold;vertical-align:top;">gluon_parent</td><td style="vertical-align:top;">:</td><td><div>/home/kushal/skynote/web2py</div></td></tr><tr><td style="font-weight:bold;vertical-align:top;">http_accept</td><td style="vertical-align:top;">:</td><td><div>text/html,application/xhtml+xml,application/xml;q=0.9,*/*;q=0.8</div></td></tr><tr><td style="font-weight:bold;vertical-align:top;">http_accept_encoding</td><td style="vertical-align:top;">:</td><td><div>gzip, deflate</div></td></tr><tr><td style="font-weight:bold;vertical-align:top;">http_accept_language</td><td style="vertical-align:top;">:</td><td><div>en-US,en;q=0.5</div></td></tr><tr><td style="font-weight:bold;vertical-align:top;">http_connection</td><td style="vertical-align:top;">:</td><td><div>keep-alive</div></td></tr><tr><td style="font-weight:bold;vertical-align:top;">http_cookie</td><td style="vertical-align:top;">:</td><td><div>session_id_fb=127.0.0.1-b9955c70-4449-4561-9c19-2461be3cf7f1; fbsr_227235817483297=Bzs0-KeLqcTVA0tNegRWq5UkquRqTAx99eY94b9eKtw.eyJhbGdvcml0aG0iOiJITUFDLVNIQTI1NiIsImNvZGUiOiJBUUJqMkJKUEJJZ0FTRnJGWHZDZ1lLLWtZOFBQQW4tNWs0NmxPZERDSnY1RkJFNUlSVWluTkluRTJRT0NSREY1d0ZCOEVsdm5mS003TmxEMWFGelZmNjhiV19WdmE2TlVfbERvQk55Qkk2THdVaUpNLU12NERhSlk0NXI2VGg2LTBaS2FXNFBWdG5zbUd5U3FFMG10RkZDNjV0VkwtOHVSOW1tZ2RiU0V3Z3lMTkRSZFBWOHo3enlPOU4tekI2RURNSWcwcDNRZzJPZG83V3VJLW9tamdXV0t1VndkUFB2NDJLRHNNV3FNbXltWHc3SnZWdGlSZnQ0RDV5ZmhKY1dfSU9RdXZLMEM4TmFlTnlKSVNXN2l2eG1HN1JOc0tDSjlFVjRHQ0hyeXUyYUZ3aTlOV1F1OGY4VzJfUml5RkY3X2dxb2VuM0ZJNGN6SlR6MkxCMmszZTc0OCIsImlzc3VlZF9hdCI6MTM5NjQyNjkxMywidXNlcl9pZCI6IjEwMDAwMTU4NTUwMjIyMSJ9; session_id_notepad=127.0.0.1-d2066106-3c02-42c1-b4e0-7e160e670a5a; session_id_admin=127.0.0.1-6b6e6bf8-ef97-4ca7-9c35-2f5418b6e416</div></td></tr><tr><td style="font-weight:bold;vertical-align:top;">http_host</td><td style="vertical-align:top;">:</td><td><div>localhost:8000</div></td></tr><tr><td style="font-weight:bold;vertical-align:top;">http_user_agent</td><td style="vertical-align:top;">:</td><td><div>Mozilla/5.0 (X11; Ubuntu; Linux i686; rv:28.0) Gecko/20100101 Firefox/28.0</div></td></tr><tr><td style="font-weight:bold;vertical-align:top;">is_jython</td><td style="vertical-align:top;">:</td><td><div>False</div></td></tr><tr><td style="font-weight:bold;vertical-align:top;">is_pypy</td><td style="vertical-align:top;">:</td><td><div>False</div></td></tr><tr><td style="font-weight:bold;vertical-align:top;">is_source</td><td style="vertical-align:top;">:</td><td><div>True</div></td></tr><tr><td style="font-weight:bold;vertical-align:top;">local_hosts</td><td style="vertical-align:top;">:</td><td><div><table><tr><td><div>::1</div></td></tr><tr><td><div>127.0.1.1</div></td></tr><tr><td><div>::ffff:127.0.0.1</div></td></tr><tr><td><div>127.0.0.1</div></td></tr><tr><td><div>kushal-Inspiron-3521</div></td></tr></table></div></td></tr><tr><td style="font-weight:bold;vertical-align:top;">path_info</td><td style="vertical-align:top;">:</td><td><div>/notepad/default/index.html</div></td></tr><tr><td style="font-weight:bold;vertical-align:top;">query_string</td><td style="vertical-align:top;">:</td><td><div></div></td></tr><tr><td style="font-weight:bold;vertical-align:top;">remote_addr</td><td style="vertical-align:top;">:</td><td><div>127.0.0.1</div></td></tr><tr><td style="font-weight:bold;vertical-align:top;">remote_port</td><td style="vertical-align:top;">:</td><td><div>61000</div></td></tr><tr><td style="font-weight:bold;vertical-align:top;">request_method</td><td style="vertical-align:top;">:</td><td><div>GET</div></td></tr><tr><td style="font-weight:bold;vertical-align:top;">request_uri</td><td style="vertical-align:top;">:</td><td><div>/notepad/default/index.html</div></td></tr><tr><td style="font-weight:bold;vertical-align:top;">script_name</td><td style="vertical-align:top;">:</td><td><div></div></td></tr><tr><td style="font-weight:bold;vertical-align:top;">server_name</td><td style="vertical-align:top;">:</td><td><div>kushal-Inspiron-3521</div></td></tr><tr><td style="font-weight:bold;vertical-align:top;">server_port</td><td style="vertical-align:top;">:</td><td><div>8000</div></td></tr><tr><td style="font-weight:bold;vertical-align:top;">server_protocol</td><td style="vertical-align:top;">:</td><td><div>HTTP/1.1</div></td></tr><tr><td style="font-weight:bold;vertical-align:top;">server_software</td><td style="vertical-align:top;">:</td><td><div>Rocket 1.2.6</div></td></tr><tr><td style="font-weight:bold;vertical-align:top;">web2py_path</td><td style="vertical-align:top;">:</td><td><div>/home/kushal/skynote/web2py</div></td></tr><tr><td style="font-weight:bold;vertical-align:top;">web2py_version</td><td style="vertical-align:top;">:</td><td><div>2.9.4-stable+timestamp.2014.03.05.04.44.09</div></td></tr><tr><td style="font-weight:bold;vertical-align:top;">wsgi.errors</td><td style="vertical-align:top;">:</td><td><div>&lt;open file &#x27;&lt;stderr&gt;&#x27;, mode &#x27;w&#x27; at 0xb727e0d0&gt;</div></td></tr><tr><td style="font-weight:bold;vertical-align:top;">wsgi.file_wrapper</td><td style="vertical-align:top;">:</td><td><div>&lt;class wsgiref.util.FileWrapper at 0x8a7514c&gt;</div></td></tr><tr><td style="font-weight:bold;vertical-align:top;">wsgi.input</td><td style="vertical-align:top;">:</td><td><div>&lt;socket._fileobject object at 0xb51b572c&gt;</div></td></tr><tr><td style="font-weight:bold;vertical-align:top;">wsgi.multiprocess</td><td style="vertical-align:top;">:</td><td><div>False</div></td></tr><tr><td style="font-weight:bold;vertical-align:top;">wsgi.multithread</td><td style="vertical-align:top;">:</td><td><div>True</div></td></tr><tr><td style="font-weight:bold;vertical-align:top;">wsgi.run_once</td><td style="vertical-align:top;">:</td><td><div>False</div></td></tr><tr><td style="font-weight:bold;vertical-align:top;">wsgi.url_scheme</td><td style="vertical-align:top;">:</td><td><div>http</div></td></tr><tr><td style="font-weight:bold;vertical-align:top;">wsgi.version</td><td style="vertical-align:top;">:</td><td><div><table><tr><td><div>1</div></td></tr><tr><td><div>0</div></td></tr></table></div></td></tr><tr><td style="font-weight:bold;vertical-align:top;">wsgi_errors</td><td style="vertical-align:top;">:</td><td><div>&lt;open file &#x27;&lt;stderr&gt;&#x27;, mode &#x27;w&#x27; at 0xb727e0d0&gt;</div></td></tr><tr><td style="font-weight:bold;vertical-align:top;">wsgi_file_wrapper</td><td style="vertical-align:top;">:</td><td><div>&lt;class wsgiref.util.FileWrapper at 0x8a7514c&gt;</div></td></tr><tr><td style="font-weight:bold;vertical-align:top;">wsgi_input</td><td style="vertical-align:top;">:</td><td><div>&lt;socket._fileobject object at 0xb51b572c&gt;</div></td></tr><tr><td style="font-weight:bold;vertical-align:top;">wsgi_multiprocess</td><td style="vertical-align:top;">:</td><td><div>False</div></td></tr><tr><td style="font-weight:bold;vertical-align:top;">wsgi_multithread</td><td style="vertical-align:top;">:</td><td><div>True</div></td></tr><tr><td style="font-weight:bold;vertical-align:top;">wsgi_run_once</td><td style="vertical-align:top;">:</td><td><div>False</div></td></tr><tr><td style="font-weight:bold;vertical-align:top;">wsgi_url_scheme</td><td style="vertical-align:top;">:</td><td><div>http</div></td></tr><tr><td style="font-weight:bold;vertical-align:top;">wsgi_version</td><td style="vertical-align:top;">:</td><td><div><table><tr><td><div>1</div></td></tr><tr><td><div>0</div></td></tr></table></div></td></tr></table></div></td></tr><tr><td style="font-weight:bold;vertical-align:top;">extension</td><td style="vertical-align:top;">:</td><td><div>html</div></td></tr><tr><td style="font-weight:bold;vertical-align:top;">folder</td><td style="vertical-align:top;">:</td><td><div>/home/kushal/skynote/web2py/applications/notepad/</div></td></tr><tr><td style="font-weight:bold;vertical-align:top;">function</td><td style="vertical-align:top;">:</td><td><div>index</div></td></tr><tr><td style="font-weight:bold;vertical-align:top;">global_settings</td><td style="vertical-align:top;">:</td><td><div><table><tr><td style="font-weight:bold;vertical-align:top;">app_folders</td><td style="vertical-align:top;">:</td><td><div>set([&#x27;/home/kushal/skynote/web2py/applications/admin/&#x27;, &#x27;/home/kushal/skynote/web2py/applications/notepad/&#x27;, &#x27;/home/kushal/skynote/web2py/applications/fb/&#x27;])</div></td></tr><tr><td style="font-weight:bold;vertical-align:top;">applications_parent</td><td style="vertical-align:top;">:</td><td><div>/home/kushal/skynote/web2py</div></td></tr><tr><td style="font-weight:bold;vertical-align:top;">cmd_args</td><td style="vertical-align:top;">:</td><td><div><table></table></div></td></tr><tr><td style="font-weight:bold;vertical-align:top;">cmd_options</td><td style="vertical-align:top;">:</td><td><div>&lt;Values at 0x8aa984c: {&#x27;verbose&#x27;: False, &#x27;ip&#x27;: &#x27;127.0.0.1&#x27;, &#x27;debuglevel&#x27;: 30, &#x27;with_scheduler&#x27;: False, &#x27;ips&#x27;: [&#x27;127.0.1.1&#x27;], &#x27;shutdown_timeout&#x27;: 5, &#x27;taskbar&#x27;: False, &#x27;with_coverage&#x27;: False, &#x27;port&#x27;: 8000, &#x27;maxthreads&#x27;: None, &#x27;softcron&#x27;: False, &#x27;server_name&#x27;: &#x27;kushal-Inspiron-3521&#x27;, &#x27;bpython&#x27;: False, &#x27;nogui&#x27;: True, &#x27;pid_filename&#x27;: &#x27;httpserver.pid&#x27;, &#x27;extcron&#x27;: False, &#x27;runcron&#x27;: False, &#x27;run_system_tests&#x27;: False, &#x27;test&#x27;: None, &#x27;folder&#x27;: &#x27;/home/kushal/skynote/web2py&#x27;, &#x27;config&#x27;: &#x27;&#x27;, &#x27;minthreads&#x27;: None, &#x27;shell&#x27;: None, &#x27;run&#x27;: &#x27;&#x27;, &#x27;log_filename&#x27;: &#x27;httpserver.log&#x27;, &#x27;profiler_dir&#x27;: None, &#x27;args&#x27;: [&#x27;&#x27;], &#x27;socket_timeout&#x27;: 5, &#x27;ssl_ca_certificate&#x27;: None, &#x27;scheduler&#x27;: None, &#x27;interfaces&#x27;: None, &#x27;ssl_private_key&#x27;: &#x27;&#x27;, &#x27;scheduler_groups&#x27;: None, &#x27;password&#x27;: &#x27;iiit123&#x27;, &#x27;request_queue_size&#x27;: 5, &#x27;ssl_certificate&#x27;: &#x27;&#x27;, &#x27;cronjob&#x27;: False, &#x27;numthreads&#x27;: None, &#x27;quiet&#x27;: False, &#x27;import_models&#x27;: False, &#x27;timeout&#x27;: 10, &#x27;plain&#x27;: False, &#x27;nobanner&#x27;: False}&gt;</div></td></tr><tr><td style="font-weight:bold;vertical-align:top;">db_sessions</td><td style="vertical-align:top;">:</td><td><div>set([])</div></td></tr><tr><td style="font-weight:bold;vertical-align:top;">debugging</td><td style="vertical-align:top;">:</td><td><div>False</div></td></tr><tr><td style="font-weight:bold;vertical-align:top;">gluon_parent</td><td style="vertical-align:top;">:</td><td><div>/home/kushal/skynote/web2py</div></td></tr><tr><td style="font-weight:bold;vertical-align:top;">is_jython</td><td style="vertical-align:top;">:</td><td><div>False</div></td></tr><tr><td style="font-weight:bold;vertical-align:top;">is_pypy</td><td style="vertical-align:top;">:</td><td><div>False</div></td></tr><tr><td style="font-weight:bold;vertical-align:top;">is_source</td><td style="vertical-align:top;">:</td><td><div>True</div></td></tr><tr><td style="font-weight:bold;vertical-align:top;">local_hosts</td><td style="vertical-align:top;">:</td><td><div><table><tr><td><div>::1</div></td></tr><tr><td><div>127.0.1.1</div></td></tr><tr><td><div>::ffff:127.0.0.1</div></td></tr><tr><td><div>127.0.0.1</div></td></tr><tr><td><div>kushal-Inspiron-3521</div></td></tr></table></div></td></tr><tr><td style="font-weight:bold;vertical-align:top;">web2py_version</td><td style="vertical-align:top;">:</td><td><div>2.9.4-stable+timestamp.2014.03.05.04.44.09</div></td></tr></table></div></td></tr><tr><td style="font-weight:bold;vertical-align:top;">is_https</td><td style="vertical-align:top;">:</td><td><div>False</div></td></tr><tr><td style="font-weight:bold;vertical-align:top;">is_local</td><td style="vertical-align:top;">:</td><td><div>True</div></td></tr><tr><td style="font-weight:bold;vertical-align:top;">is_restful</td><td style="vertical-align:top;">:</td><td><div>False</div></td></tr><tr><td style="font-weight:bold;vertical-align:top;">now</td><td style="vertical-align:top;">:</td><td><div>datetime.datetime(2014, 4, 2, 14, 0, 0, 163557)</div></td></tr><tr><td style="font-weight:bold;vertical-align:top;">raw_args</td><td style="vertical-align:top;">:</td><td><div></div></td></tr><tr><td style="font-weight:bold;vertical-align:top;">raw_extension</td><td style="vertical-align:top;">:</td><td><div>html</div></td></tr><tr><td style="font-weight:bold;vertical-align:top;">url</td><td style="vertical-align:top;">:</td><td><div>/notepad/default/index.html</div></td></tr><tr><td style="font-weight:bold;vertical-align:top;">utcnow</td><td style="vertical-align:top;">:</td><td><div>datetime.datetime(2014, 4, 2, 8, 30, 0, 163611)</div></td></tr><tr><td style="font-weight:bold;vertical-align:top;">uuid</td><td style="vertical-align:top;">:</td><td><div>notepad/127.0.0.1.2014-04-02.14-00-00.0be054a1-8ba6-4095-bd33-788a57c468dd</div></td></tr><tr><td style="font-weight:bold;vertical-align:top;">wsgi</td><td style="vertical-align:top;">:</td><td><div>&lt;gluon.main.LazyWSGI object at 0xaf73f6ac&gt;</div></td></tr></table></div>'
tRp68
sS'frames'
p69
(lp70
(dp71
S'file'
p72
S'/home/kushal/skynote/web2py/gluon/restricted.py'
p73
sS'dump'
p74
(dp75
S'code'
p76
S'\'response.write(\\\'<!DOCTYPE html>\\\\n<html lang="en"..."></script>\\\\n  </body>\\\\n</html>\\\\n\\\', escape=False)\''
p77
sS'layer'
p78
S"'/home/kushal/skynote/web2py/applications/notepad/views/default/index.html'"
p79
sS'global compile2'
p80
S'<function compile2>'
p81
sS'ccode'
p82
S'undefined'
p83
ssS'lnum'
p84
I216
sS'lines'
p85
(dp86
I211
S"    environment['__name__'] = '__restricted__'"
p87
sI212
S'    try:'
p88
sI213
S'        if isinstance(code, types.CodeType):'
p89
sI214
S'            ccode = code'
p90
sI215
S'        else:'
p91
sI216
S'            ccode = compile2(code, layer)'
p92
sI217
S'        exec ccode in environment'
p93
sI218
S'    except HTTP:'
p94
sI219
S'        raise'
p95
sI220
S'    except RestrictedError:'
p96
ssS'call'
p97
S'(code=\'response.write(\\\'<!DOCTYPE html>\\\\n<html lang="en"..."></script>\\\\n  </body>\\\\n</html>\\\\n\\\', escape=False)\', environment={\'A\': <class \'gluon.html.A\'>, \'ANY_OF\': <class \'gluon.validators.ANY_OF\'>, \'Auth\': <class \'gluon.tools.Auth\'>, \'B\': <class \'gluon.html.B\'>, \'BEAUTIFY\': <class \'gluon.html.BEAUTIFY\'>, \'BODY\': <class \'gluon.html.BODY\'>, \'BR\': <class \'gluon.html.BR\'>, \'BUTTON\': <class \'gluon.html.BUTTON\'>, \'CAT\': <class \'gluon.html.CAT\'>, \'CENTER\': <class \'gluon.html.CENTER\'>, ...}, layer=\'/home/kushal/skynote/web2py/applications/notepad/views/default/index.html\')'
p98
sS'func'
p99
S'restricted'
p100
sa(dp101
g72
S'/home/kushal/skynote/web2py/gluon/restricted.py'
p102
sg74
(dp103
S'builtincompile'
p104
S'<built-in function compile>'
p105
sS'code'
p106
S'\'response.write(\\\'<!DOCTYPE html>\\\\n<html lang="en"..."></script>\\\\n  </body>\\\\n</html>\\\\n\\\', escape=False)\''
p107
sS'code.rstrip'
p108
S'<built-in method rstrip of str object>'
p109
sS').replace'
p110
g83
sS'layer'
p111
S"'/home/kushal/skynote/web2py/applications/notepad/views/default/index.html'"
p112
ssg84
I199
sg85
(dp113
I194
S''
sI195
S'def compile2(code, layer):'
p114
sI196
S'    """'
p115
sI197
S"    The +'\\n' is necessary else compile fails when code ends in a comment."
p116
sI198
S'    """'
p117
sI199
S"    return compile(code.rstrip().replace('\\r\\n', '\\n') + '\\n', layer, 'exec')"
p118
sI200
S''
sI201
S''
sI202
S"def restricted(code, environment=None, layer='Unknown'):"
p119
sI203
S'    """'
p120
ssg97
S'(code=\'response.write(\\\'<!DOCTYPE html>\\\\n<html lang="en"..."></script>\\\\n  </body>\\\\n</html>\\\\n\\\', escape=False)\', layer=\'/home/kushal/skynote/web2py/applications/notepad/views/default/index.html\')'
p121
sg99
S'compile2'
p122
sasS'pyver'
p123
S'Python 2.7.3: /usr/bin/python (prefix: /usr)'
p124
sS'session'
p125
g67
(S's\x1a\x00\x00\x00<div><table></table></div>'
tRp126
sS'etype'
p127
S"<type 'exceptions.SyntaxError'>"
p128
sS'date'
p129
S'Wed Apr  2 14:00:00 2014'
p130
sS'response'
p131
g67
(S's\x172\x00\x00<div><table><tr><td style="font-weight:bold;vertical-align:top;">body</td><td style="vertical-align:top;">:</td><td><div>&lt;cStringIO.StringO object at 0xaf73f9e0&gt;</div></td></tr><tr><td style="font-weight:bold;vertical-align:top;">cookies</td><td style="vertical-align:top;">:</td><td><div><table><tr><td style="font-weight:bold;vertical-align:top;">session_id_notepad</td><td style="vertical-align:top;">:</td><td><div>127.0.0.1-d2066106-3c02-42c1-b4e0-7e160e670a5a<table><tr><td style="font-weight:bold;vertical-align:top;">comment</td><td style="vertical-align:top;">:</td><td><div></div></td></tr><tr><td style="font-weight:bold;vertical-align:top;">domain</td><td style="vertical-align:top;">:</td><td><div></div></td></tr><tr><td style="font-weight:bold;vertical-align:top;">expires</td><td style="vertical-align:top;">:</td><td><div></div></td></tr><tr><td style="font-weight:bold;vertical-align:top;">httponly</td><td style="vertical-align:top;">:</td><td><div></div></td></tr><tr><td style="font-weight:bold;vertical-align:top;">max-age</td><td style="vertical-align:top;">:</td><td><div></div></td></tr><tr><td style="font-weight:bold;vertical-align:top;">path</td><td style="vertical-align:top;">:</td><td><div>/</div></td></tr><tr><td style="font-weight:bold;vertical-align:top;">secure</td><td style="vertical-align:top;">:</td><td><div></div></td></tr><tr><td style="font-weight:bold;vertical-align:top;">version</td><td style="vertical-align:top;">:</td><td><div></div></td></tr></table></div></td></tr></table></div></td></tr><tr><td style="font-weight:bold;vertical-align:top;">delimiters</td><td style="vertical-align:top;">:</td><td><div><table><tr><td><div>{{</div></td></tr><tr><td><div>}}</div></td></tr></table></div></td></tr><tr><td style="font-weight:bold;vertical-align:top;">files</td><td style="vertical-align:top;">:</td><td><div><table></table></div></td></tr><tr><td style="font-weight:bold;vertical-align:top;">flash</td><td style="vertical-align:top;">:</td><td><div>Welcome to web2py!</div></td></tr><tr><td style="font-weight:bold;vertical-align:top;">generic_patterns</td><td style="vertical-align:top;">:</td><td><div><table><tr><td><div>*</div></td></tr></table></div></td></tr><tr><td style="font-weight:bold;vertical-align:top;">google_analytics_id</td><td style="vertical-align:top;">:</td><td><div>None</div></td></tr><tr><td style="font-weight:bold;vertical-align:top;">headers</td><td style="vertical-align:top;">:</td><td><div><table><tr><td style="font-weight:bold;vertical-align:top;">X-Powered-By</td><td style="vertical-align:top;">:</td><td><div>web2py</div></td></tr></table></div></td></tr><tr><td style="font-weight:bold;vertical-align:top;">logo</td><td style="vertical-align:top;">:</td><td><div><a class="brand" href="http://www.web2py.com/"><b>web<span>2</span>py</b>&trade;&nbsp;</a></div></td></tr><tr><td style="font-weight:bold;vertical-align:top;">menu</td><td style="vertical-align:top;">:</td><td><div><table><tr><td><div><table><tr><td><div>Home</div></td></tr><tr><td><div>False</div></td></tr><tr><td><div>/notepad/default/main</div></td></tr><tr><td><div><table></table></div></td></tr></table></div></td></tr><tr><td><div><table><tr><td><div><span class="highlighted">web2py</span></div></td></tr><tr><td><div>False</div></td></tr><tr><td><div>http://web2py.com</div></td></tr><tr><td><div><table><tr><td><div><table><tr><td><div>My Sites</div></td></tr><tr><td><div>False</div></td></tr><tr><td><div>/admin/default/site</div></td></tr></table></div></td></tr><tr><td><div><table><tr><td><div>This App</div></td></tr><tr><td><div>False</div></td></tr><tr><td><div>/admin/default/design/notepad</div></td></tr><tr><td><div>[(&lt;lazyT &#x27;Controller&#x27;&gt;, False, &#x27;/admin/default/edit/notepad/controllers/default.py&#x27;), (&lt;lazyT &#x27;View&#x27;&gt;, False, &#x27;/admin/default/edit/notepad/views/default/index.html&#x27;), (&lt;lazyT &#x27;Layout&#x27;&gt;, False, &#x27;/admin/default/edit/notepad/views/layout.html&#x27;), (&lt;lazyT &#x27;Stylesheet&#x27;&gt;, False, &#x27;/admin/default/edit/notepad/static/css/web2py.css&#x27;), (&lt;lazyT &#x27;DB Model&#x27;&gt;, False, &#x27;/admin/default/edit/notepad/models/db.py&#x27;), (&lt;lazyT &#x27;Menu Model&#x27;&gt;, False, &#x27;/admin/default/edit/notepad/models/menu.py&#x27;), (&lt;lazyT &#x27;Database&#x27;&gt;, False, &#x27;/notepad/appadmin/index&#x27;), (&lt;lazyT &#x27;Errors&#x27;&gt;, False, &#x27;/admin/default/errors/notepad&#x27;), (&lt;lazyT &#x27;About&#x27;&gt;, False, &#x27;/admin/default/about/notepad&#x27;)]</div></td></tr></table></div></td></tr><tr><td><div><table><tr><td><div>web2py.com</div></td></tr><tr><td><div>False</div></td></tr><tr><td><div>http://www.web2py.com</div></td></tr><tr><td><div>[(&lt;lazyT &#x27;Download&#x27;&gt;, False, &#x27;http://www.web2py.com/examples/default/download&#x27;), (&lt;lazyT &#x27;Support&#x27;&gt;, False, &#x27;http://www.web2py.com/examples/default/support&#x27;), (&lt;lazyT &#x27;Demo&#x27;&gt;, False, &#x27;http://web2py.com/demo_admin&#x27;), (&lt;lazyT &#x27;Quick Examples&#x27;&gt;, False, &#x27;http://web2py.com/examples/default/examples&#x27;), (&lt;lazyT &#x27;FAQ&#x27;&gt;, False, &#x27;http://web2py.com/AlterEgo&#x27;), (&lt;lazyT &#x27;Videos&#x27;&gt;, False, &#x27;http://www.web2py.com/examples/default/videos/&#x27;), (&lt;lazyT &#x27;Free Applications&#x27;&gt;, False, &#x27;http://web2py.com/appliances&#x27;), (&lt;lazyT &#x27;Plugins&#x27;&gt;, False, &#x27;http://web2py.com/plugins&#x27;), (&lt;lazyT &#x27;Layouts&#x27;&gt;, False, &#x27;http://web2py.com/layouts&#x27;), (&lt;lazyT &#x27;Recipes&#x27;&gt;, False, &#x27;http://web2pyslices.com/&#x27;), (&lt;lazyT &#x27;Semantic&#x27;&gt;, False, &#x27;http://web2py.com/semantic&#x27;)]</div></td></tr></table></div></td></tr><tr><td><div><table><tr><td><div>Documentation</div></td></tr><tr><td><div>False</div></td></tr><tr><td><div>http://www.web2py.com/book</div></td></tr><tr><td><div>[(&lt;lazyT &#x27;Preface&#x27;&gt;, False, &#x27;http://www.web2py.com/book/default/chapter/00&#x27;), (&lt;lazyT &#x27;Introduction&#x27;&gt;, False, &#x27;http://www.web2py.com/book/default/chapter/01&#x27;), (&lt;lazyT &#x27;Python&#x27;&gt;, False, &#x27;http://www.web2py.com/book/default/chapter/02&#x27;), (&lt;lazyT &#x27;Overview&#x27;&gt;, False, &#x27;http://www.web2py.com/book/default/chapter/03&#x27;), (&lt;lazyT &#x27;The Core&#x27;&gt;, False, &#x27;http://www.web2py.com/book/default/chapter/04&#x27;), (&lt;lazyT &#x27;The Views&#x27;&gt;, False, &#x27;http://www.web2py.com/book/default/chapter/05&#x27;), (&lt;lazyT &#x27;Database&#x27;&gt;, False, &#x27;http://www.web2py.com/book/default/chapter/06&#x27;), (&lt;lazyT &#x27;Forms and Validators&#x27;&gt;, False, &#x27;http://www.web2py.com/book/default/chapter/07&#x27;), (&lt;lazyT &#x27;Email and SMS&#x27;&gt;, False, &#x27;http://www.web2py.com/book/default/chapter/08&#x27;), (&lt;lazyT &#x27;Access Control&#x27;&gt;, False, &#x27;http://www.web2py.com/book/default/chapter/09&#x27;), (&lt;lazyT &#x27;Services&#x27;&gt;, False, &#x27;http://www.web2py.com/book/default/chapter/10&#x27;), (&lt;lazyT &#x27;Ajax Recipes&#x27;&gt;, False, &#x27;http://www.web2py.com/book/default/chapter/11&#x27;), (&lt;lazyT &#x27;Components and Plugins&#x27;&gt;, False, &#x27;http://www.web2py.com/book/default/chapter/12&#x27;), (&lt;lazyT &#x27;Deployment Recipes&#x27;&gt;, False, &#x27;http://www.web2py.com/book/default/chapter/13&#x27;), (&lt;lazyT &#x27;Other Recipes&#x27;&gt;, False, &#x27;http://www.web2py.com/book/default/chapter/14&#x27;), (&lt;lazyT &#x27;Buy this book&#x27;&gt;, False, &#x27;http://stores.lulu.com/web2py&#x27;)]</div></td></tr></table></div></td></tr><tr><td><div><table><tr><td><div>Community</div></td></tr><tr><td><div>False</div></td></tr><tr><td><div>None</div></td></tr><tr><td><div>[(&lt;lazyT &#x27;Groups&#x27;&gt;, False, &#x27;http://www.web2py.com/examples/default/usergroups&#x27;), (&lt;lazyT &#x27;Twitter&#x27;&gt;, False, &#x27;http://twitter.com/web2py&#x27;), (&lt;lazyT &#x27;Live Chat&#x27;&gt;, False, &#x27;http://webchat.freenode.net/?channels=web2py&#x27;)]</div></td></tr></table></div></td></tr><tr><td><div><table><tr><td><div>Plugins</div></td></tr><tr><td><div>False</div></td></tr><tr><td><div>None</div></td></tr><tr><td><div>[(&#x27;plugin_wiki&#x27;, False, &#x27;http://web2py.com/examples/default/download&#x27;), (&lt;lazyT &#x27;Other Plugins&#x27;&gt;, False, &#x27;http://web2py.com/plugins&#x27;), (&lt;lazyT &#x27;Layout Plugins&#x27;&gt;, False, &#x27;http://web2py.com/layouts&#x27;)]</div></td></tr></table></div></td></tr></table></div></td></tr></table></div></td></tr></table></div></td></tr><tr><td style="font-weight:bold;vertical-align:top;">meta</td><td style="vertical-align:top;">:</td><td><div><table><tr><td style="font-weight:bold;vertical-align:top;">author</td><td style="vertical-align:top;">:</td><td><div>Your Name &lt;you@example.com&gt;</div></td></tr><tr><td style="font-weight:bold;vertical-align:top;">description</td><td style="vertical-align:top;">:</td><td><div>a cool new app</div></td></tr><tr><td style="font-weight:bold;vertical-align:top;">generator</td><td style="vertical-align:top;">:</td><td><div>Web2py Web Framework</div></td></tr><tr><td style="font-weight:bold;vertical-align:top;">keywords</td><td style="vertical-align:top;">:</td><td><div>web2py, python, framework</div></td></tr></table></div></td></tr><tr><td style="font-weight:bold;vertical-align:top;">models_to_run</td><td style="vertical-align:top;">:</td><td><div><table><tr><td><div>^\\w+\\.py$</div></td></tr><tr><td><div>^default/\\w+\\.py$</div></td></tr><tr><td><div>^default/index/\\w+\\.py$</div></td></tr></table></div></td></tr><tr><td style="font-weight:bold;vertical-align:top;">postprocessing</td><td style="vertical-align:top;">:</td><td><div><table></table></div></td></tr><tr><td style="font-weight:bold;vertical-align:top;">session_client</td><td style="vertical-align:top;">:</td><td><div>127.0.0.1</div></td></tr><tr><td style="font-weight:bold;vertical-align:top;">session_cookie_compression_level</td><td style="vertical-align:top;">:</td><td><div>None</div></td></tr><tr><td style="font-weight:bold;vertical-align:top;">session_cookie_expires</td><td style="vertical-align:top;">:</td><td><div>None</div></td></tr><tr><td style="font-weight:bold;vertical-align:top;">session_cookie_key</td><td style="vertical-align:top;">:</td><td><div>None</div></td></tr><tr><td style="font-weight:bold;vertical-align:top;">session_data_name</td><td style="vertical-align:top;">:</td><td><div>session_data_notepad</div></td></tr><tr><td style="font-weight:bold;vertical-align:top;">session_file</td><td style="vertical-align:top;">:</td><td><div>&lt;open file &#x27;/home/kushal/skynote/web2py/applications/notepad/sessions/127.0.0.1-d2066106-3c02-42c1-b4e0-7e160e670a5a&#x27;, mode &#x27;rb+&#x27; at 0xaf70bc28&gt;</div></td></tr><tr><td style="font-weight:bold;vertical-align:top;">session_filename</td><td style="vertical-align:top;">:</td><td><div>/home/kushal/skynote/web2py/applications/notepad/sessions/127.0.0.1-d2066106-3c02-42c1-b4e0-7e160e670a5a</div></td></tr><tr><td style="font-weight:bold;vertical-align:top;">session_hash</td><td style="vertical-align:top;">:</td><td><div>75570977e5256604cbf34fc243db0ca0</div></td></tr><tr><td style="font-weight:bold;vertical-align:top;">session_id</td><td style="vertical-align:top;">:</td><td><div>127.0.0.1-d2066106-3c02-42c1-b4e0-7e160e670a5a</div></td></tr><tr><td style="font-weight:bold;vertical-align:top;">session_id_name</td><td style="vertical-align:top;">:</td><td><div>session_id_notepad</div></td></tr><tr><td style="font-weight:bold;vertical-align:top;">session_locked</td><td style="vertical-align:top;">:</td><td><div>True</div></td></tr><tr><td style="font-weight:bold;vertical-align:top;">session_masterapp</td><td style="vertical-align:top;">:</td><td><div>notepad</div></td></tr><tr><td style="font-weight:bold;vertical-align:top;">session_new</td><td style="vertical-align:top;">:</td><td><div>False</div></td></tr><tr><td style="font-weight:bold;vertical-align:top;">session_storage_type</td><td style="vertical-align:top;">:</td><td><div>file</div></td></tr><tr><td style="font-weight:bold;vertical-align:top;">status</td><td style="vertical-align:top;">:</td><td><div>200</div></td></tr><tr><td style="font-weight:bold;vertical-align:top;">subtitle</td><td style="vertical-align:top;">:</td><td><div></div></td></tr><tr><td style="font-weight:bold;vertical-align:top;">title</td><td style="vertical-align:top;">:</td><td><div>Notepad</div></td></tr><tr><td style="font-weight:bold;vertical-align:top;">view</td><td style="vertical-align:top;">:</td><td><div>default/index.html</div></td></tr></table></div>'
tRp132
sS'locals'
p133
(dp134
g4
S"'/home/kushal/skynote/web2py/applications/notepad/views/default/index.html'"
p135
sg6
S'\'response.write(\\\'<!DOCTYPE html>\\\\n<html lang="en"..."></script>\\\\n  </body>\\\\n</html>\\\\n\\\', escape=False)\''
p136
sssS'traceback'
p137
S'Traceback (most recent call last):\n  File "/home/kushal/skynote/web2py/gluon/restricted.py", line 216, in restricted\n    ccode = compile2(code, layer)\n  File "/home/kushal/skynote/web2py/gluon/restricted.py", line 199, in compile2\n    return compile(code.rstrip().replace(\'\\r\\n\', \'\\n\') + \'\\n\', layer, \'exec\')\n  File "/home/kushal/skynote/web2py/applications/notepad/views/default/index.html", line 3\n    <!-- Custom styles for this template -->\n    ^\nSyntaxError: invalid syntax\n'
p138
s.