(dp1
S'output'
p2
S"<type 'exceptions.AttributeError'> 'NoneType' object has no attribute 'strip'"
p3
sS'layer'
p4
S'/home/kushal/skynote/web2py/applications/notepad_sid/controllers/default.py'
p5
sS'code'
p6
S'# -*- coding: utf-8 -*-\n# this file is released under public domain and you can use without limitations\n\n#########################################################################\n## This is a sample controller\n## - index is the default action of any application\n## - user is required for authentication and authorization\n## - download is for downloading files uploaded in the db (does streaming)\n## - call exposes all registered services (none by default)\n#########################################################################\n\n\ndef index():\n    """\n    example action using the internationalization operator T and flash\n    rendered by views/default/index.html or views/generic.html\n\n    if you need a simple wiki simply replace the two lines below with:\n    return auth.wiki()\n    """\n    response.flash = T("Welcome to Sky-Note!")\n    return dict(message=T(\'Hello World\'))\n\n\ndef user():\n    """\n    exposes:\n    http://..../[app]/default/user/login\n    http://..../[app]/default/user/logout\n    http://..../[app]/default/user/register\n    http://..../[app]/default/user/profile\n    http://..../[app]/default/user/retrieve_password\n    http://..../[app]/default/user/change_password\n    http://..../[app]/default/user/manage_users (requires membership in\n    use @auth.requires_login()\n        @auth.requires_membership(\'group name\')\n        @auth.requires_permission(\'read\',\'table name\',record_id)\n    to decorate functions that need access control\n    """\n    return dict(form=auth())\n\n@cache.action()\ndef download():\n    """\n    allows downloading of uploaded files\n    http://..../[app]/default/download/[filename]\n    """\n    return response.download(request, db)\n\ndef contact_us():\n    return dict()\ndef call():\n    """\n    exposes services. for example:\n    http://..../[app]/default/call/jsonrpc\n    decorate with @services.jsonrpc the functions to expose\n    supports xml, json, xmlrpc, jsonrpc, amfrpc, rss, csv\n    """\n    return service()\n\n\n@auth.requires_signature()\ndef data():\n    """\n    http://..../[app]/default/data/tables\n    http://..../[app]/default/data/create/[table]\n    http://..../[app]/default/data/read/[table]/[id]\n    http://..../[app]/default/data/update/[table]/[id]\n    http://..../[app]/default/data/delete/[table]/[id]\n    http://..../[app]/default/data/select/[table]\n    http://..../[app]/default/data/search/[table]\n    but URLs must be signed, i.e. linked with\n      A(\'table\',_href=URL(\'data/tables\',user_signature=True))\n    or with the signed load operator\n      LOAD(\'default\',\'data.load\',args=\'tables\',ajax=True,user_signature=True)\n    """\n    return dict(form=crud())\n\n\nfrom gluon.tools import Mail\nmail = Mail()\nmail.settings.server = \'smtp.gmail.com:587\'\nmail.settings.sender = \'sky_notes\'\nmail.settings.login = \'skynote009@gmail.com:skynote15\'\n\ndef create():\n    return dict()\n\n\n@auth.requires_login()\ndef table_update():\n    title = request.get_vars[\'Title\'];\n    info =request.get_vars[\'Info\'];\n    modified =request.get_vars[\'Modified\'];\n    creator=auth.user.id\n\n    db.Notes.insert(Creator=creator,Title=title,Info=info,Modified=modified,Tags=None)\n    return dict(j="True")\n\n@auth.requires_login()\ndef auto_suggestion():\n    suggestion=request.get_vars[\'sug\']\n    if suggestion is not \' \':\n        rows=db(db.Notes.Info.contains(suggestion)).select()\n        ans=\'{"names":[\'\n        count=0\n        for i in rows:\n            if(int(i.Creator) == auth.user.id):\n                if(count!=0):\n                    ans+= ","\n                ans+= \'"\'+ i["Title"] +\'"\'\n                count+=1\n        ans+= "]}"\n          \n    return dict(ans=ans)\n\n@auth.requires_login()\ndef auto_suggestion_by_title():\n    suggestion=request.get_vars[\'sug\']\n    rows=db(db.Notes.Title.contains(suggestion)).select()\n    ans=\'{"names":[\'\n    count=0\n    for i in rows:\n            if(int(i.Creator) == auth.user.id):\n                if(count!=0):\n                    ans+= ","\n                ans+= \'"\'+ i["Title"] +\'"\'\n                count+=1\n    ans+= "]}"  \n    return dict(ans=ans)\n\n\n@auth.requires_login()\ndef auto_suggestion_by_tags():\n    suggestion=request.get_vars[\'sug\']\n    if suggestion is not \' \':\n        rows=db(db.Notes.Tags.contains(suggestion)).select()\n        ans=\'{"names":[\'\n        count=0\n        for i in rows:\n            if(int(i.Creator) == auth.user.id):\n                if(count!=0):\n                    ans+= ","\n                ans+= \'"\'+ i["Title"] +\'"\'\n                count+=1\n        ans+= "]}"\n          \n    return dict(ans=ans)\n\n@auth.requires_login()\ndef auto_suggestion_by_title():\n    suggestion=request.get_vars[\'sug\']\n    rows=db(db.Notes.Title.contains(suggestion)).select()\n    ans=\'{"names":[\'\n    count=0\n    for i in rows:\n            if(int(i.Creator) == auth.user.id):\n                if(count!=0):\n                    ans+= ","\n                ans+= \'"\'+ i["Title"] +\'"\'\n                count+=1\n    ans+= "]}"\n          \n    return dict(ans=ans)\n\n\n\ndef secret_content():\n    ans=request.get_vars["head"]\n    db.Request_arg.truncate(\'RESTART IDENTITY CASCADE\')\n    db.Request_arg.insert(Arg1=ans)\n    return dict(ans=ans)\n\ndef secret_title():\n    ans=request.get_vars["head"]\n    rows=db(db.Notes.Tags.contains(ans)).select()\n    for i in rows:\n        if(int(i.Creator) == auth.user.id):\n                ans=i["Title"]\n    db.Request_arg.truncate(\'RESTART IDENTITY CASCADE\')\n    db.Request_arg.insert(Arg1=ans)\n    return dict(ans=ans)\n\ndef secret_tag():\n    ans=request.get_vars["head"]\n    rows=db(db.Notes.Tags.contains(ans)).select()\n    for i in rows:\n        if(int(i.Creator) == auth.user.id):\n                ans=i["Title"]\n    db.Request_arg.truncate(\'RESTART IDENTITY CASCADE\')\n    db.Request_arg.insert(Arg1=ans)\n    return dict(ans=ans)\n\n@auth.requires_login() \ndef manage(): \n    rows=db(db.Request_arg.id>0).select()\n    for i in rows:\n        title=i["Arg1"]\n    redirect(URL("open",args=title))\n    return dict()\n\n\n\n@auth.requires_login()\ndef check_title():\n    title = request.get_vars["Title"]\n    var = db(db.Notes.Creator == auth.user.id).select()\n    temp="True"\n    for i in var:\n        if(i.Title==title):\n           temp = "False"\n    return dict(j=temp)\n\n@auth.requires_login()       \ndef open():\n    temp = request.args(0);\n    var=db(db.Notes.Creator == auth.user.id).select()\n    title = ""\n    ans = temp.strip()\n    for i in ans:\n        if i is \'_\':\n            title+=\' \'\n        else:\n            title+=i\n    \n\n    for j in var:\n        if j.Title == title:\n            content = j.Info\n            modified = j.Modified\n\n    return dict(ans=title, ans2=content, modified = modified)\n\n@auth.requires_login()\ndef view_all():\n    var = db(db.Notes.Creator == auth.user.id).select(orderby=\'<random>\')\n    return dict(notes=var)\n\n@auth.requires_login()\ndef delete_note():\n    temp = request.args(0)\n    title = ""\n    ans = temp.strip()\n    for i in ans:\n        if i is \'_\':\n            title+=\' \'\n        else:\n            title+=i\n    \n    temp_note = db(db.Notes.Creator==auth.user.id).select()\n    for i in temp_note:\n        if(i.Title == title):\n            i.delete_record()\n    redirect(URL(\'view_all\'))\n\n@auth.requires_login()\ndef edit_note():\n    temp = request.args(0)\n    title = ""\n    ans = temp.strip()\n    for i in ans:\n        if i is \'_\':\n            title+=\' \'\n        else:\n            title+=i\n    ans=[]\n    temp_note = db(db.Notes.Creator == auth.user.id).select()\n    for i in temp_note:\n        if(i.Title==title):\n         ans.append(i)\n    return dict(var=ans)\n\n@auth.requires_login()\ndef update_note():\n    title = request.get_vars[\'Title\']\n    info =request.get_vars[\'Info\']\n    modified=request.get_vars[\'Modified\']\n    temp_note = db(db.Notes.Creator==auth.user.id).select()\n    for i in temp_note:\n        if(i.Title ==title):\n            i.update_record(Info =info, Modified=modified)\n    return dict(j="True")\n\n\n#db(db.mytable.myfield.contains(\'text\')).select() \n# relational database \n#db(db.mytable.myfield.contains(\'text\')).select() \n\n#Home page for each user where he decides what to do ..... then goes to main page cooresponding to that.\n#index is promotional page\n#add requires login later on.\n@auth.requires_login()    \ndef main():\n  return dict()\n\ndef calendar():\n    return dict()\n\ndef trail():\n    return dict()\n\n#temporarily redirected to home\ndef index():\n    if(auth.user):\n       redirect(URL(\'view_all\'))\n    return dict()\n\ndef try_now():\n    return dict()\n\n@auth.requires_login()    \ndef save_tags():\n    title = request.get_vars[\'Title\'];\n    tag=request.get_vars[\'Tags\'];\n    \n    var=db().select(db.Notes.ALL)\n\n    temp_note = db(db.Notes.Creator==auth.user.id).select()\n    for i in temp_note:\n        if(i.Title == title):\n            i.update_record(Tags = tag)\n    return dict(j="Tag inserted")\n\n@auth.requires_login()   \ndef sendmail():\n    title= request.get_vars[\'Title\'];\n    reciever= request.get_vars[\'Reciever\'];\n    var = db(db.Notes.Creator == auth.user.id).select()\n    for i in var:\n        if i.Title==title:\n            content=i.Info\n\n    temp=\'skynote:\'+title\n    mail.send(to=[reciever],\n          subject=temp,\n          # If reply_to is omitted, then mail.settings.sender is used\n          reply_to=\'skynote009@gmail.com\',\n          message=content)\n    return dict(j="Mail Sent")\n    \ndef go():\n    return dict()\nresponse._vars=response._caller(open)\n'
p7
sS'snapshot'
p8
(dp9
sS'traceback'
p10
S'Traceback (most recent call last):\n  File "/home/kushal/skynote/web2py/gluon/restricted.py", line 217, in restricted\n    exec ccode in environment\n  File "/home/kushal/skynote/web2py/applications/notepad_sid/controllers/default.py", line 343, in <module>\n  File "/home/kushal/skynote/web2py/gluon/globals.py", line 385, in <lambda>\n    self._caller = lambda f: f()\n  File "/home/kushal/skynote/web2py/gluon/tools.py", line 3259, in f\n    return action(*a, **b)\n  File "/home/kushal/skynote/web2py/applications/notepad_sid/controllers/default.py", line 219, in open\n    ans = temp.strip()\nAttributeError: \'NoneType\' object has no attribute \'strip\'\n'
p11
s.