(dp1
S'output'
p2
S"<type 'exceptions.AttributeError'> 'NoneType' object has no attribute 'id'"
p3
sS'layer'
p4
S'/home/kushal/skynote/web2py/applications/notepad/views/default/main.html'
p5
sS'code'
p6
S'response.write(\'<!DOCTYPE html>\\n<html lang="en">\\n  <head>\\n    <meta charset="utf-8">\\n    <meta http-equiv="X-UA-Compatible" content="IE=edge">\\n    <meta name="viewport" content="width=device-width, initial-scale=1.0">\\n    <meta name="description" content="">\\n    <meta name="author" content="">\\n\\n    <title>Bolt - Free Bootstrap 3 Theme</title>\\n\\n      <!--[if !HTML5]>\\n      <meta http-equiv="X-UA-Compatible" content="IE=edge\', escape=False)\nresponse.write(not request.is_local and \',chrome=1\' or \'\')\nresponse.write(\'">\\n  <![endif]-->\\n  <!-- www.phpied.com/conditional-comments-block-downloads/ -->\\n  <!-- Always force latest IE rendering engine\\n       (even in intranet) & Chrome Frame\\n       Remove this if you use the .htaccess -->\\n\\t   \\n  <meta charset="utf-8" />\\n\\n  <!-- http://dev.w3.org/html5/markup/meta.name.html -->\\n  <meta name="application-name" content="\', escape=False)\nresponse.write(request.application)\nresponse.write(\'" />\\n\\n  <!-- Speaking of Google, don\\\'t forget to set your site up:\\n       http://google.com/webmasters -->\\n  <meta name="google-site-verification" content="" />\\n\\n  <!--  Mobile Viewport Fix\\n        j.mp/mobileviewport & davidbcalhoun.com/2010/viewport-metatag\\n        device-width: Occupy full width of the screen in its current orientation\\n        initial-scale = 1.0 retains dimensions instead of zooming out if page height > device height\\n        user-scalable = yes allows the user to zoom in -->\\n  <meta name="viewport" content="width=device-width, initial-scale=1.0" />\\n\\n  <link rel="shortcut icon" href="\', escape=False)\nresponse.write(URL(\'static\',\'images/favicon.ico\'))\nresponse.write(\'" type="image/x-icon">\\n  <link rel="apple-touch-icon" href="\', escape=False)\nresponse.write(URL(\'static\',\'images/favicon.png\'))\nresponse.write(\'">\\n\\n  <!-- All JavaScript at the bottom, except for Modernizr which enables\\n       HTML5 elements & feature detects -->\\n  <script src="\', escape=False)\nresponse.write(URL(\'static\',\'js/modernizr.custom.js\'))\nresponse.write(\'"></script>\\n\\n  <!-- include stylesheets -->\\n  \', escape=False)\nresponse.files.insert(0,URL(\'static\',\'css/web2py.css\'))\nresponse.files.insert(1,URL(\'static\',\'css/bootstrap.min.css\'))\nresponse.files.insert(2,URL(\'static\',\'css/bootstrap-responsive.min.css\'))\nresponse.files.insert(3,URL(\'static\',\'css/web2py_bootstrap.css\'))\nresponse.write(\'\\n\\n  \', escape=False)\nresponse.write(\'<script type="text/javascript"><!--\\n    // These variables are used by the web2py_ajax_init function in web2py_ajax.js (which is loaded below).\\n    var w2p_ajax_confirm_message = "\', escape=False)\nresponse.write(T(\'Are you sure you want to delete this object?\'))\nresponse.write(\'";\\n    var w2p_ajax_disable_with_message = "\', escape=False)\nresponse.write(T(\'Working...\'))\nresponse.write(\'";\\n    var w2p_ajax_date_format = "\', escape=False)\nresponse.write(T(\'%Y-%m-%d\'))\nresponse.write(\'";\\n    var w2p_ajax_datetime_format = "\', escape=False)\nresponse.write(T(\'%Y-%m-%d %H:%M:%S\'))\nresponse.write(\'";\\n    var ajax_error_500 = \\\'\', escape=False)\nresponse.write(T.M(\'An error occured, please [[reload %s]] the page\') % URL(args=request.args, vars=request.get_vars))\nresponse.write("\'\\n    //--></script>\\n", escape=False)\nresponse.files.insert(0,URL(\'static\',\'js/jquery.js\'))\nresponse.files.insert(1,URL(\'static\',\'css/calendar.css\'))\nresponse.files.insert(2,URL(\'static\',\'js/calendar.js\'))\nresponse.files.insert(3,URL(\'static\',\'js/web2py.js\'))\nresponse.include_meta()\nresponse.include_files()\nresponse.write(\'\\n\', escape=False)\nresponse.write(\'\\n\\n  \', escape=False)\n# using sidebars need to know what sidebar you want to use\nleft_sidebar_enabled = globals().get(\'left_sidebar_enabled\',False)\nright_sidebar_enabled = globals().get(\'right_sidebar_enabled\',False)\nmiddle_columns = {0:\'span12\',1:\'span9\',2:\'span6\'}[\n(left_sidebar_enabled and 1 or 0)+(right_sidebar_enabled and 1 or 0)]\nresponse.write(\'\\n\\n  <!-- uncomment here to load jquery-ui\\n       <link rel="stylesheet" href="http://ajax.googleapis.com/ajax/libs/jqueryui/1.10.3/themes/ui-lightness/jquery-ui.css" type="text/css" media="all" />\\n       <script src="http://ajax.googleapis.com/ajax/libs/jqueryui/1.10.3/jquery-ui.min.js" type="text/javascript"></script>\\n       uncomment to load jquery-ui //-->\\n  <noscript><link href="\', escape=False)\nresponse.write(URL(\'static\', \'css/web2py_bootstrap_nojs.css\'))\nresponse.write(\'" rel="stylesheet" type="text/css" /></noscript>\\n  \', escape=False)\nresponse.write(\'\\n\\n    <!-- Bootstrap core CSS -->\\n    <link href="\', escape=False)\nresponse.write(URL(\'static\',\'css/bootstrap.css\'))\nresponse.write(\'" rel="stylesheet">\\n    <link href="\', escape=False)\nresponse.write(URL(\'static\',\'css/main.css\'))\nresponse.write(\'" rel="stylesheet">\\n    <link href="\', escape=False)\nresponse.write(URL(\'static\',\'css/font-awesome.min.css\'))\nresponse.write(\'" rel="stylesheet">\\n    <script src="\', escape=False)\nresponse.write(URL(\'static\',\'js/jquery.js\'))\nresponse.write(\'"></script>\\n    <script src="\', escape=False)\nresponse.write(URL(\'static\',\'js/chart.js\'))\nresponse.write(\'"></script>\\n\\n\\n    <!-- HTML5 shim and Respond.js IE8 support of HTML5 elements and media queries -->\\n    <!--[if lt IE 9]>\\n      <script src="https://oss.maxcdn.com/libs/html5shiv/3.7.0/html5shiv.js"></script>\\n      <script src="https://oss.maxcdn.com/libs/respond.js/1.3.0/respond.min.js"></script>\\n    <![endif]-->\\n  </head>\\n\\n  <body>\\n\\n    <!-- Fixed navbar -->\\n\\n    <div class="navbar navbar-default navbar-fixed-top"> <!--Correct-->\\n      <div class="container">\\n\\t          \', escape=False)\nis_mobile=request.user_agent().is_mobile\nresponse.write(\'\\n        <div class="navbar-header">\\n          <button type="button" class="navbar-toggle" data-toggle="collapse" data-target=".navbar-collapse">\\n            <span class="icon-bar"></span>\\n            <span class="icon-bar"></span>\\n            <span class="icon-bar"></span>\\n          </button>\\n\\t  \', escape=False)\nresponse.write(response.logo or \'\')\nresponse.write(\'\\t\\n\\t   <a class="navbar-brand" href="#"><i class="fa fa-bolt"></i></a>\\n        </div>\\n        <div class="navbar-collapse collapse">\\n\\t\\t<ul id="navbar" class="nav pull-right">\', escape=False)\nresponse.write(\'auth\' in globals() and auth.navbar(mode="dropdown") or \'\')\nresponse.write(\'</ul>     \\n\\t\\t\\t <!--This part does the login button-->\\n \\t\\t   \\n          \\n\\t   </div><!--/.nav-collapse -->\\n      </div>\\n    </div>\\n\\n\\n\\t<div id="hello">\\n\\t    <div class="container">\\n\\t    \\t<div class="row">\\n\\t    \\t\\t<div class="col-lg-8 col-lg-offset-2 centered">\\n\\t\\t\\t\\t\', escape=False)\nresponse.write(\'\\n  \\n<link href=\\\'http://fonts.googleapis.com/css?family=The+Girl+Next+Door\\\' rel=\\\'stylesheet\\\' type=\\\'text/css\\\'>\\n   \\n<script type="text/javascript">\\n\\n//Format is --- {Title:[content,time]}\\ndocument.addEventListener("DOMContentLoaded", function() {\\ndocument.getElementById(\\\'Title\\\').focus()\\n});\\n\\n\\n/* Improve the check field for the text-box ..... choose a better method .......*/\\n\\nfunction check_empty()\\n{\\n   if(document.getElementById(\\\'Title\\\').value)\\n    return ;\\ndocument.getElementById(\\\'Title\\\').focus()\\nalert("please enter a title")\\n\\n}\\nfunction Restore(){\\n\\n/*To ensure that text-field is valid . */ \\n\\n  check_empty()\\n\\n\\nvar content = document.getElementById("main_content");\\nvar title=document.getElementById(\\\'Title\\\');\\nvar doc_title=localStorage.getItem("Title");\\nvar ans=localStorage.getItem(\', escape=False)\nresponse.write(auth.user.id)\nresponse.write(\')\\n\\n \\nif (localStorage.getItem("stored_content")) {\\n    content.value = localStorage.getItem("stored_content");\\n  }\\n \\n setInterval(function(){\\n    localStorage.setItem("stored_content", content.value);\\n }, 1000);\\n\\nif (localStorage.getItem("Title")) {\\n    title.value = localStorage.getItem("Title");\\n  }\\n \\n setInterval(function(){\\n\\n    localStorage.setItem("Title", title.value);\\n }, 1000);\\n\\n\\n\\n\\nif(ans==null)\\n  {\\n    \\n  ans=\\\'"\\\\\\\\{\\\'\\n  ans+=\\\'\\\\\\\\"\\\'+doc_title+\\\'\\\\\\\\"\\\\\\\\:\\\'\\n  ans+="\\\\\\\\["\\n  ans+=\\\'\\\\\\\\"\\\'+content.value+\\\'\\\\\\\\"\\\\\\\\,\\\'\\n  ans+=\\\'\\\\\\\\"\\\'+new Date()+\\\'\\\\\\\\"\\\'\\n  ans+="\\\\\\\\]"\\n  ans+=\\\'\\\\\\\\}"\\\'\\n\\n  //x1="\\\\{\\\\"as\\\\"\\\\:\\\\[\\\\"1qw\\\\"\\\\,\\\\"12\\\\"\\\\]\\\\}"\\n\\n/* trial version\\n  ans="\\\'{"\\n  ans+=\\\'"\\\'+doc_title+\\\'":\\\'\\n  ans+="\\\'["\\n  ans+=\\\'"\\\'+content.value+\\\'",\\\'\\n  ans+=\\\'"\\\'+new Date()+\\\'"\\\'\\n  ans+="]\\\'"\\n  ans+="}\\\'"\\n\\n*/\\n  }\\n\\nelse\\n  {ans=eval("("+ans+")")\\n   ans=eval("("+ans+")")\\n   ans[doc_title]=[content.value,new Date()]\\n   /*var z=ans[doc_title]\\n   alert(z)\\n   z[0]=content.value\\n   z[1]=new Date()\\n   ans[doc_title]=z\\n  *///conversion to proper string   \\n   var count=0\\n   var temp=ans\\n\\n//x1="\\\\{\\\\"as\\\\"\\\\:\\\\[\\\\"1qw\\\\"\\\\,\\\\"12\\\\"\\\\]\\\\}"\\n   ans=\\\'"\\\\\\\\{\\\'\\n   for(var i in temp)\\n      {    \\n        if(count!=0)\\n            ans+= "\\\\\\\\,"\\n        \\n         ans+= \\\'\\\\\\\\"\\\'+i+\\\'\\\\\\\\"\\\'+\\\'\\\\\\\\:\\\\\\\\[\\\'\\n         var counter=0\\n         for(var one in temp[i])\\n          {\\n           if(counter!=0)\\n            ans+= "\\\\\\\\," \\n            ans+= \\\'\\\\\\\\"\\\'+temp[i][one]+\\\'\\\\\\\\"\\\'\\n            counter+=1\\n          }\\n        count+=1\\n          ans+=\\\'\\\\\\\\]\\\'\\n        }\\n\\n    ans+=\\\'\\\\\\\\}"\\\'\\n}\\nlocalStorage.setItem(\', escape=False)\nresponse.write(auth.user.id)\nresponse.write(\',ans)\\n\\n}\\n//   Complete this Function Later when it Gets Triggered and How to use\\n\\n\\nfunction SaveTitle () {\\nvar title=document.getElementById(\\\'Title\\\');\\nlocalStorage.setItem("Title",title.value); \\n\\n\\n}\\n\\n my_tag=\\\'None\\\'\\nvar my_title=\\\'None\\\'\\n\\n\\nfunction SaveTags () {  \\n\\n\\n\\n\\n my_tag=document.getElementById(\\\'Tags\\\').value;\\n my_title=localStorage.getItem("Title");\\n\\n}\\n\\n\\nfunction set_secret( the_head ) {\\n  var xmlhttp;\\nif (window.XMLHttpRequest)\\n  {xmlhttp=new XMLHttpRequest();\\n  }\\nelse\\n  {xmlhttp=new ActiveXObject("Microsoft.XMLHTTP");\\n  }\\ndocument.getElementById("")\\n\\nxmlhttp.open("GET","secret?head="+the_head,true);\\nxmlhttp.send();\\n\\n  }\\n\\n\\nfunction loadXMLDoc()\\n{\\nvar temp=localStorage.getItem(\', escape=False)\nresponse.write(auth.user.id)\nresponse.write(\')\\ntemp=eval("("+temp+")")\\ntemp=eval("("+temp+")")\\n\\nfor(var i in temp)\\n{ \\n\\nvar xmlhttp;\\nif (window.XMLHttpRequest)\\n  {xmlhttp=new XMLHttpRequest();\\n  }\\nelse\\n  {xmlhttp=new ActiveXObject("Microsoft.XMLHTTP");\\n  }\\nxmlhttp.onreadystatechange=function()\\n  {\\n  if (xmlhttp.readyState==4 && xmlhttp.status==200)\\n    {\\n    document.getElementById("response").innerHTML=xmlhttp.responseText;\\n    }\\n  }\\n var title=i\\n  var info=temp[i][0]\\n  var modified=temp[i][1];\\n\\nxmlhttp.open("GET","table_update?Title="+title+"&&Info="+info+"&&Modified="+modified,true);\\nxmlhttp.send();\\n}\\n\\n\\nlocalStorage.removeItem(\', escape=False)\nresponse.write(auth.user.id)\nresponse.write(\')  \\nlocalStorage.removeItem("Title")\\nlocalStorage.removeItem("stored_content")\\n\\nvar xmlhttp1;\\nif (window.XMLHttpRequest)\\n  {xmlhttp1=new XMLHttpRequest();\\n  }\\nelse\\n  {xmlhttp1=new ActiveXObject("Microsoft.XMLHTTP");\\n  }\\nxmlhttp1.onreadystatechange=function()\\n  {\\n  if (xmlhttp1.readyState==4 && xmlhttp1.status==200)\\n    {\\n    document.getElementById("response1").innerHTML=xmlhttp1.responseText;\\n    }\\n  }\\n\\n\\nxmlhttp1.open("GET","save_tags?Title="+my_title+"&&Tags="+my_tag,true);\\n xmlhttp1.send();\\n\\n\\n}\\n\\nfunction go_to_url (title) {\\n      //alert(title);\\n      //redirect\', escape=False)\nresponse.write(URL(\'http://127.0.0.1:8000/Note/default/content\'))\nresponse.write(\';//+\\\'?head=\\\'+title;\\n      var inside=document.getElementById(\\\'Search\\\');\\n      inside.value=title; \\n      set_secret(title);\\n   \\n}\\n\\nfunction Find_Suggestion()\\n{\\nvar xmlhttp;\\nif (window.XMLHttpRequest)\\n  {xmlhttp=new XMLHttpRequest();\\n  }\\nelse\\n  {xmlhttp=new ActiveXObject("Microsoft.XMLHTTP");\\n  } \\nxmlhttp.onreadystatechange=function()\\n  {\\n  if (xmlhttp.readyState==4 && xmlhttp.status==200)\\n    {\\n    Info_Title=xmlhttp.responseText;\\n//    document.getElementById("display").innerHTML=Info_Title;\\n    json_output=eval("("+Info_Title+")");\\n\\n   var myNode = document.getElementById("display");\\n     while (myNode.firstChild)\\n      {\\n           myNode.removeChild(myNode.firstChild);\\n      } \\n\\n        for (var i in json_output["names"])\\n        {\\n              var temp=json_output["names"][i];\\n              var div = document.createElement(\\\'div\\\')\\n              div.id=i;\\n              div.innerHTML=temp;\\n              div.setAttribute("onclick","go_to_url(this.innerHTML);");\\n              document.getElementById("display").appendChild(div)                \\n               //URL(c=\\\'default\\\',args=[\\\'AAA\\\'], vars={\\\'id\\\': \\\'9\\\'}))}}\\n//<div id="myid"></div>//json_output["names"][i]\\n\\n        }\\n\\n    }\\n  }\\n\\nvar user_input=document.getElementById("Search").value\\n\\n\\n\\n\\nif (user_input.match(/^\\\\s*$/)) {\\n    // nothing, or nothing but whitespace\\n\\n  document.getElementById("display").innerHTML=\\\'\\\'\\n} \\n\\nelse\\n{\\nxmlhttp.open("GET","auto_suggestion?sug="+user_input,true);\\nxmlhttp.send();\\n}\\n}\\n\\nfunction Find_Suggestion_by_Tags()\\n{\\nvar xmlhttp;\\nif (window.XMLHttpRequest)\\n  {// code for IE7+, Firefox, Chrome, Opera, Safari\\n  xmlhttp=new XMLHttpRequest();\\n  }\\nelse\\n  {// code for IE6, IE5\\n  xmlhttp=new ActiveXObject("Microsoft.XMLHTTP");\\n  }\\nxmlhttp.onreadystatechange=function()\\n  {\\nif (xmlhttp.readyState==4 && xmlhttp.status==200)\\n    {\\n    Info_Title=xmlhttp.responseText;\\n//    document.getElementById("display").innerHTML=Info_Title;\\n    json_output=eval("("+Info_Title+")");\\n\\n   var myNode = document.getElementById("display_tags");\\n     while (myNode.firstChild)\\n      {\\n           myNode.removeChild(myNode.firstChild);\\n      } \\n\\n        for (var i in json_output["names"])\\n        {\\n              var temp=json_output["names"][i];\\n              var div = document.createElement(\\\'div\\\')\\n              div.id=i;\\n              div.innerHTML=temp;\\n              div.setAttribute("onclick","go_to_url(this.innerHTML);");\\n              document.getElementById("display_tags").appendChild(div)                \\n               //URL(c=\\\'default\\\',args=[\\\'AAA\\\'], vars={\\\'id\\\': \\\'9\\\'}))}}\\n//<div id="myid"></div>//json_output["names"][i]\\n\\n        }\\n\\n    }\\n  }\\n\\nvar user_input=document.getElementById("Search_tags").value\\n\\nif (user_input.match(/^\\\\s*$/)) {\\n    // nothing, or nothing but whitespace\\n\\n  document.getElementById("display_tags").innerHTML=\\\'\\\'\\n} \\nelse\\n{\\nxmlhttp.open("GET","auto_suggestion_by_tags?sug="+user_input,true);\\nxmlhttp.send();\\n}\\n}\\n\\n\\n</script>\\n   \\n\\n   <style>\\n\\n     textarea {\\n       font-family: \\\'The Girl Next Door\\\', cursive;\\n       text-shadow: 4px 4px 4px #aaa;\\n       font-size: 28px;\\n     }\\n\\n   </style>\\n\\n\\n    <div id ="main_cover">\\n\\n    <input  id="Title" />\\n    <button id="save_title" onclick="SaveTitle()"> Save Title </button>\\n    \\n    <button id="restore_content" onclick="Restore()"> Restore </button>\\n    <textarea id="main_content" onclick="Restore()"></textarea>\\n    <button id="sync" onclick="loadXMLDoc()">Sync Now</button>\\n\\n    <!--div id="fb-root"></div>\\n\\n    <fb:login-button show-faces="true" width="200" max-rows="1"></fb:login-button>\\n  <div class="fb-like" data-href="http://google.com" data-layout="standard" data-action="like" data-show-faces="true" data-share="true">\\n  </div-->\\n\\n    <div id="response"></div>\\n\\n    <input  id="Search"/ onkeyup="Find_Suggestion()">\\n    <a href="manage"><button id="Open"> Open </button></a>\\n\\n    <div id="display"></div>\\n\\n\\n    </div>\\n\\n\\n     <div id="tag">\\n    <input placeholder="enter tags"   id="Tags"\\\\>\\n    <button id="save_tags" onclick="SaveTags()" >Save Tags</button>\\n    </div>\\n\\n    <input id="Search_tags" placeholder="Search by Tags"  onkeyup="Find_Suggestion_by_Tags()" > \\n        <div id="display_tags"></div>\\n\\n        <div id="display"></div>\\n    <button onclick="location.href=\\\'\', escape=False)\nresponse.write(URL(r=request,f=\'view_all\'))\nresponse.write(\'\\\'"> View Notes</button>\\n\\n<div id="response1"></div>\\n<script>\\n /* window.fbAsyncInit = function() {\\n  FB.init({\\n    appId      : 227235817483297,\\n    status     : true, // check login status\\n    cookie     : true, // enable cookies to allow the server to access the session\\n    xfbml      : true  // parse XFBML\\n  });\\n\\n  // Here we subscribe to the auth.authResponseChange JavaScript event. This event is fired\\n  // for any authentication related change, such as login, logout or session refresh. This means that\\n  // whenever someone who was previously logged out tries to log in again, the correct case below \\n  // will be handled. \\n  FB.Event.subscribe(\\\'auth.authResponseChange\\\', function(response) {\\n    // Here we specify what we do with the response anytime this event occurs. \\n    if (response.status === \\\'connected\\\') {\\n      // The response object is returned with a status field that lets the app know the current\\n      // login status of the person. In this case, we\\\'re handling the situation where they \\n      // have logged in to the app.\\n      window.open(\\\'http://www.yahoo.com\\\');\\n      testAPI();\\n    } else if (response.status === \\\'not_authorized\\\') {\\n      // In this case, the person is logged into Facebook, but not into the app, so we call\\n      // FB.login() to prompt them to do so. \\n      // In real-life usage, you wouldn\\\'t want to immediately prompt someone to login \\n      // like this, for two reasons:\\n      // (1) JavaScript created popup windows are blocked by most browsers unless they \\n      // result from direct interaction from people using the app (such as a mouse click)\\n      // (2) it is a bad experience to be continually prompted to login upon page load.\\n      FB.login();\\n    } else {\\n      // In this case, the person is not logged into Facebook, so we call the login() \\n      // function to prompt them to do so. Note that at this stage there is no indication\\n      // of whether they are logged into the app. If they aren\\\'t then they\\\'ll see the Login\\n      // dialog right after they log in to Facebook. \\n      // The same caveats as above apply to the FB.login() call here.\\n      FB.login();\\n    }\\n  });\\n  };\\n\\n  // Load the SDK asynchronously\\n  (function(d){\\n   var js, id = \\\'facebook-jssdk\\\', ref = d.getElementsByTagName(\\\'script\\\')[0];\\n   if (d.getElementById(id)) {return;}\\n   js = d.createElement(\\\'script\\\'); js.id = id; js.async = true;\\n   js.src = "//connect.facebook.net/en_US/all.js";\\n   ref.parentNode.insertBefore(js, ref);\\n  }(document));\\n\\n  // Here we run a very simple test of the Graph API after login is successful. \\n  // This testAPI() function is only called in those cases. \\n  function testAPI() {\\n    console.log(\\\'Welcome!  Fetching your information.... \\\');\\n    FB.api(\\\'/me\\\', function(response) {\\n      console.log(\\\'Good to see you, \\\' + response.name + \\\'.\\\');\\n    });\\n  }*/\\n</script>\\n\', escape=False)\nresponse.write(\'\\t    \\t\\t\\t\\n\\t\\t\\t\\t<h1>Sky-Notes</h1>\\n\\t    \\t\\t\\t<h2>The Best</h2>\\n\\t    \\t\\t</div><!-- /col-lg-8 -->\\n\\t    \\t</div><!-- /row -->\\n\\t    </div> <!-- /container -->\\n\\t</div><!-- /hello -->\\n\\t\\n\\t<div id="green">\\n\\t\\t<div class="container">\\n\\t\\t\\t<div class="row">\\n\\t\\t\\t\\t<div class="col-lg-5 centered">\\n\\t\\t\\t\\t\\t<img src="\', escape=False)\nresponse.write(URL(\'static\',\'images/iphone.png\'))\nresponse.write(\'"/>\\n\\n\\t\\t\\t\\t</div>\\n\\t\\t\\t\\t\\n\\t\\t\\t\\t<div class="col-lg-7 centered">\\n\\t\\t\\t\\t\\t<h3>WHAT WE CAN DO?</h3>\\n\\t\\t\\t\\t\\t<p>Lorem Ipsum is simply dummy text of the printing and typesetting industry. Lorem Ipsum has been the industry\\\'s standard dummy text ever since the 1500s, when an unknown printer took a galley of type and scrambled it to make a type specimen book.</p>\\n\\t\\t\\t\\t</div>\\n\\t\\t\\t</div>\\n\\t\\t</div>\\n\\t</div>\\n\\t\\t\\n\\t<div class="container">\\n\\t\\t<div class="row centered mt grid">\\n\\t\\t\\t<h3>OUR LATEST WORK</h3>\\n\\t\\t\\t<div class="mt"></div>\\n\\t\\t\\t<div class="col-lg-4">\\n\\t\\t\\t\\t<a href="#"><img src=\', escape=False)\nresponse.write(URL(\'static\',\'images/01.jpg\'))\nresponse.write(\'></a>\\n\\t\\t\\t</div>\\n\\t\\t\\t<div class="col-lg-4">\\n\\t\\t\\t\\t<a href="#"> <img src="\', escape=False)\nresponse.write(URL(\'static\',\'images/02.jpg\'))\nresponse.write(\'"/></a>\\n\\t\\t\\t\\t\\t\\t\\n\\t\\t\\t</div>\\n\\t\\t\\t<div class="col-lg-4">\\n\\t\\t\\t\\t<a href="#"><img src="\', escape=False)\nresponse.write(URL(\'static\',\'images/03.jpg\'))\nresponse.write(\'"></a>\\n\\t\\t\\t</div>\\n\\t\\t</div>\\n\\t\\t\\n\\t\\t<div class="row centered mt grid">\\n\\t\\t\\t<div class="mt"></div>\\t\\t\\n\\t\\t\\t<div class="col-lg-4">\\n\\t\\t\\t\\t<a href="#"><img src="\', escape=False)\nresponse.write(URL(\'static\',\'images/04.jpg\'))\nresponse.write(\'"/></a>\\n\\t\\t\\t</div>\\n\\t\\t\\t<div class="col-lg-4">\\n\\t\\t\\t\\t<a href="#"><img src="\', escape=False)\nresponse.write(URL(\'static\',\'images/05.jpg\'))\nresponse.write(\'"/></a>\\n\\t\\t\\t</div>\\n\\t\\t\\t<div class="col-lg-4">\\n\\t\\t\\t\\t<a href="#"><img src="\', escape=False)\nresponse.write(URL(\'static\',\'images/06.jpg\'))\nresponse.write(\'"/></a>\\n\\t\\t\\t</div>\\n\\t\\t</div>\\n\\t\\t\\n\\t\\t<div class="row mt centered">\\n\\t\\t\\t<div class="col-lg-7 col-lg-offset-1 mt">\\n\\t\\t\\t\\t\\t<p class="lead">Lorem Ipsum is simply dummy text of the printing and typesetting industry. Lorem Ipsum has been the industry\\\'s standard dummy text ever.</p>\\n\\t\\t\\t</div>\\n\\t\\t\\t\\n\\t\\t\\t<div class="col-lg-3 mt">\\n\\t\\t\\t\\t<p><button type="button" class="btn btn-theme btn-lg">Email Me!</button></p>\\n\\t\\t\\t</div>\\n\\t\\t</div>\\n\\t</div>\\n\\n\\n\\t<div id="skills">\\n\\t\\t<div class="container">\\n\\t\\t\\t<div class="row centered">\\n\\t\\t\\t\\t<h3>OUR SKILLS</h3>\\n\\t\\t\\t\\t<div class="col-lg-3 mt">\\n\\t\\t\\t\\t\\t<canvas id="javascript" height="130" width="130"></canvas>\\n\\t\\t\\t\\t\\t<p>Javascript</p>\\n\\t\\t\\t\\t\\t<br>\\n\\t\\t\\t\\t\\t<script>\\n\\t\\t\\t\\t\\t\\tvar doughnutData = [\\n\\t\\t\\t\\t\\t\\t\\t\\t{\\n\\t\\t\\t\\t\\t\\t\\t\\t\\tvalue: 70,\\n\\t\\t\\t\\t\\t\\t\\t\\t\\tcolor:"#74cfae"\\n\\t\\t\\t\\t\\t\\t\\t\\t},\\n\\t\\t\\t\\t\\t\\t\\t\\t{\\n\\t\\t\\t\\t\\t\\t\\t\\t\\tvalue : 30,\\n\\t\\t\\t\\t\\t\\t\\t\\t\\tcolor : "#3c3c3c"\\n\\t\\t\\t\\t\\t\\t\\t\\t}\\n\\t\\t\\t\\t\\t\\t\\t];\\n\\t\\t\\t\\t\\t\\t\\tvar myDoughnut = new Chart(document.getElementById("javascript").getContext("2d")).Doughnut(doughnutData);\\n\\t\\t\\t\\t\\t</script>\\n\\t\\t\\t\\t</div>\\n\\t\\t\\t\\t<div class="col-lg-3 mt">\\n\\t\\t\\t\\t\\t<canvas id="bootstrap" height="130" width="130"></canvas>\\n\\t\\t\\t\\t\\t<p>Bootstrap</p>\\n\\t\\t\\t\\t\\t<br>\\n\\t\\t\\t\\t\\t<script>\\n\\t\\t\\t\\t\\t\\tvar doughnutData = [\\n\\t\\t\\t\\t\\t\\t\\t\\t{\\n\\t\\t\\t\\t\\t\\t\\t\\t\\tvalue: 90,\\n\\t\\t\\t\\t\\t\\t\\t\\t\\tcolor:"#74cfae"\\n\\t\\t\\t\\t\\t\\t\\t\\t},\\n\\t\\t\\t\\t\\t\\t\\t\\t{\\n\\t\\t\\t\\t\\t\\t\\t\\t\\tvalue : 10,\\n\\t\\t\\t\\t\\t\\t\\t\\t\\tcolor : "#3c3c3c"\\n\\t\\t\\t\\t\\t\\t\\t\\t}\\n\\t\\t\\t\\t\\t\\t\\t];\\n\\t\\t\\t\\t\\t\\t\\tvar myDoughnut = new Chart(document.getElementById("bootstrap").getContext("2d")).Doughnut(doughnutData);\\n\\t\\t\\t\\t\\t</script>\\n\\t\\t\\t\\t</div>\\n\\t\\t\\t\\t<div class="col-lg-3 mt">\\n\\t\\t\\t\\t\\t<canvas id="wordpress" height="130" width="130"></canvas>\\n\\t\\t\\t\\t\\t<p>Wordpress</p>\\n\\t\\t\\t\\t\\t<br>\\n\\t\\t\\t\\t\\t<script>\\n\\t\\t\\t\\t\\t\\tvar doughnutData = [\\n\\t\\t\\t\\t\\t\\t\\t\\t{\\n\\t\\t\\t\\t\\t\\t\\t\\t\\tvalue: 65,\\n\\t\\t\\t\\t\\t\\t\\t\\t\\tcolor:"#74cfae"\\n\\t\\t\\t\\t\\t\\t\\t\\t},\\n\\t\\t\\t\\t\\t\\t\\t\\t{\\n\\t\\t\\t\\t\\t\\t\\t\\t\\tvalue : 35,\\n\\t\\t\\t\\t\\t\\t\\t\\t\\tcolor : "#3c3c3c"\\n\\t\\t\\t\\t\\t\\t\\t\\t}\\n\\t\\t\\t\\t\\t\\t\\t];\\n\\t\\t\\t\\t\\t\\t\\tvar myDoughnut = new Chart(document.getElementById("wordpress").getContext("2d")).Doughnut(doughnutData);\\n\\t\\t\\t\\t\\t</script>\\n\\t\\t\\t\\t</div>\\n\\t\\t\\t\\t<div class="col-lg-3 mt">\\n\\t\\t\\t\\t\\t<canvas id="photoshop" height="130" width="130"></canvas>\\n\\t\\t\\t\\t\\t<p>Photoshop</p>\\n\\t\\t\\t\\t\\t<br>\\n\\t\\t\\t\\t\\t<script>\\n\\t\\t\\t\\t\\t\\tvar doughnutData = [\\n\\t\\t\\t\\t\\t\\t\\t\\t{\\n\\t\\t\\t\\t\\t\\t\\t\\t\\tvalue: 50,\\n\\t\\t\\t\\t\\t\\t\\t\\t\\tcolor:"#74cfae"\\n\\t\\t\\t\\t\\t\\t\\t\\t},\\n\\t\\t\\t\\t\\t\\t\\t\\t{\\n\\t\\t\\t\\t\\t\\t\\t\\t\\tvalue : 50,\\n\\t\\t\\t\\t\\t\\t\\t\\t\\tcolor : "#3c3c3c"\\n\\t\\t\\t\\t\\t\\t\\t\\t}\\n\\t\\t\\t\\t\\t\\t\\t];\\n\\t\\t\\t\\t\\t\\t\\tvar myDoughnut = new Chart(document.getElementById("photoshop").getContext("2d")).Doughnut(doughnutData);\\n\\t\\t\\t\\t\\t</script>\\n\\t\\t\\t\\t</div>\\n\\t\\t\\t</div><!-- /row -->\\n\\t\\t</div><!-- /container -->\\n\\t</div><!-- /skills -->\\n\\t\\n\\t<section id="contact"></section>\\n\\t<div id="social">\\n\\t\\t<div class="container">\\n\\t\\t\\t<div class="row centered">\\n\\t\\t\\t\\t<div class="col-lg-8 col-lg-offset-2">\\n\\t\\t\\t\\t\\t<div class="col-md-3">\\n\\t\\t\\t\\t\\t\\t<a href="#"><i class="fa fa-facebook"></i></a>\\n\\t\\t\\t\\t\\t</div>\\n\\t\\t\\t\\t\\t<div class="col-md-3">\\n\\t\\t\\t\\t\\t\\t<a href="#"><i class="fa fa-dribbble"></i></a>\\n\\t\\t\\t\\t\\t</div>\\n\\t\\t\\t\\t\\t<div class="col-md-3">\\n\\t\\t\\t\\t\\t\\t<a href="#"><i class="fa fa-twitter"></i></a>\\n\\t\\t\\t\\t\\t</div>\\n\\t\\t\\t\\t\\t<div class="col-md-3">\\n\\t\\t\\t\\t\\t\\t<a href="#"><i class="fa fa-envelope"></i></a>\\n\\t\\t\\t\\t\\t</div>\\n\\t\\t\\t\\t</div>\\n\\t\\t\\t</div>\\n\\t\\t</div><!-- /container -->\\n\\t</div><!-- /social -->\\n\\n\\n\\t<div id="f">\\n\\t\\t<div class="container">\\n\\t\\t\\t<div class="row">\\n\\t\\t\\t\\t<p>Crafted with <i class="fa fa-heart"></i> by BlackTie.co.</p>\\n\\t\\t\\t</div>\\n\\t\\t</div>\\n\\t</div>\\n\\n    <!-- Bootstrap core JavaScript\\n    ================================================== -->\\n    <!-- Placed at the end of the document so the pages load faster -->\\n    <script src="\', escape=False)\nresponse.write(URL(\'static\',\'js/bootstrap.min.js\'))\nresponse.write(\'"></script>\\n  <script src="\', escape=False)\nresponse.write(URL(\'static\',\'js/web2py_bootstrap.js\'))\nresponse.write(\'"></script>\\n  <!--[if lt IE 7 ]>\\n      <script src="\', escape=False)\nresponse.write(URL(\'static\',\'js/dd_belatedpng.js\'))\nresponse.write(\'"></script>\\n      <script> DD_belatedPNG.fix(\\\'img, .png_bg\\\'); //fix any <img> or .png_bg background-images </script>\\n      <![endif]-->\\n  \\n  \', escape=False)\nif response.google_analytics_id:\n    response.write(\'\\n  <script src="\', escape=False)\n    response.write(URL(\'static\',\'js/analytics.min.js\'))\n    response.write(\'"></script>\\n  <script type="text/javascript">\\n  analytics.initialize({\\n    \\\'Google Analytics\\\':{trackingId:\\\'\', escape=False)\n    response.write(response.google_analytics_id)\n    response.write("\'} \\n  });</script>\\n  ", escape=False)\n    pass\nresponse.write(\'\\n  <script src="\', escape=False)\nresponse.write(URL(\'static\',\'js/share.js\',vars=dict(static=URL(\'static\',\'images\'))))\nresponse.write(\'"></script>\\n    <script src="\', escape=False)\nresponse.write(URL(\'static\',\'js/bootstrap.js\'))\nresponse.write(\'"></script>\\n  </body>\\n</html>\\n\', escape=False)'
p7
sS'snapshot'
p8
(dp9
S'exception'
p10
(dp11
S'__hash__'
p12
S"<method-wrapper '__hash__' of exceptions.AttributeError object>"
p13
sS'__setattr__'
p14
S"<method-wrapper '__setattr__' of exceptions.AttributeError object>"
p15
sS'__reduce_ex__'
p16
S'<built-in method __reduce_ex__ of exceptions.AttributeError object>'
p17
sS'__getslice__'
p18
S"<method-wrapper '__getslice__' of exceptions.AttributeError object>"
p19
sS'__getitem__'
p20
S"<method-wrapper '__getitem__' of exceptions.AttributeError object>"
p21
sS'__setstate__'
p22
S'<built-in method __setstate__ of exceptions.AttributeError object>'
p23
sS'__reduce__'
p24
S'<built-in method __reduce__ of exceptions.AttributeError object>'
p25
sS'__str__'
p26
S"<method-wrapper '__str__' of exceptions.AttributeError object>"
p27
sS'__format__'
p28
S'<built-in method __format__ of exceptions.AttributeError object>'
p29
sS'__getattribute__'
p30
S"<method-wrapper '__getattribute__' of exceptions.AttributeError object>"
p31
sS'__class__'
p32
S"<type 'exceptions.AttributeError'>"
p33
sS'__unicode__'
p34
S'<built-in method __unicode__ of exceptions.AttributeError object>'
p35
sS'__delattr__'
p36
S"<method-wrapper '__delattr__' of exceptions.AttributeError object>"
p37
sS'__subclasshook__'
p38
S'<built-in method __subclasshook__ of type object>'
p39
sS'__repr__'
p40
S"<method-wrapper '__repr__' of exceptions.AttributeError object>"
p41
sS'args'
p42
S'("\'NoneType\' object has no attribute \'id\'",)'
p43
sS'__dict__'
p44
S'{}'
p45
sS'__sizeof__'
p46
S'<built-in method __sizeof__ of exceptions.AttributeError object>'
p47
sS'__doc__'
p48
S"'Attribute not found.'"
p49
sS'__init__'
p50
S"<method-wrapper '__init__' of exceptions.AttributeError object>"
p51
sS'__new__'
p52
S'<built-in method __new__ of type object>'
p53
ssS'evalue'
p54
S"'NoneType' object has no attribute 'id'"
p55
sS'request'
p56
cgluon.html
XML_unpickle
p57
(S'sJ^\x00\x00<div><table><tr><td style="font-weight:bold;vertical-align:top;">ajax</td><td style="vertical-align:top;">:</td><td><div>False</div></td></tr><tr><td style="font-weight:bold;vertical-align:top;">application</td><td style="vertical-align:top;">:</td><td><div>notepad</div></td></tr><tr><td style="font-weight:bold;vertical-align:top;">args</td><td style="vertical-align:top;">:</td><td><div><table></table></div></td></tr><tr><td style="font-weight:bold;vertical-align:top;">cid</td><td style="vertical-align:top;">:</td><td><div>None</div></td></tr><tr><td style="font-weight:bold;vertical-align:top;">client</td><td style="vertical-align:top;">:</td><td><div>127.0.0.1</div></td></tr><tr><td style="font-weight:bold;vertical-align:top;">controller</td><td style="vertical-align:top;">:</td><td><div>default</div></td></tr><tr><td style="font-weight:bold;vertical-align:top;">cookies</td><td style="vertical-align:top;">:</td><td><div><table><tr><td style="font-weight:bold;vertical-align:top;">session_id_admin</td><td style="vertical-align:top;">:</td><td><div>127.0.0.1-8c41f5b5-d810-40d3-a3e9-7c42d595a503<table><tr><td style="font-weight:bold;vertical-align:top;">comment</td><td style="vertical-align:top;">:</td><td><div></div></td></tr><tr><td style="font-weight:bold;vertical-align:top;">domain</td><td style="vertical-align:top;">:</td><td><div></div></td></tr><tr><td style="font-weight:bold;vertical-align:top;">expires</td><td style="vertical-align:top;">:</td><td><div></div></td></tr><tr><td style="font-weight:bold;vertical-align:top;">httponly</td><td style="vertical-align:top;">:</td><td><div></div></td></tr><tr><td style="font-weight:bold;vertical-align:top;">max-age</td><td style="vertical-align:top;">:</td><td><div></div></td></tr><tr><td style="font-weight:bold;vertical-align:top;">path</td><td style="vertical-align:top;">:</td><td><div></div></td></tr><tr><td style="font-weight:bold;vertical-align:top;">secure</td><td style="vertical-align:top;">:</td><td><div></div></td></tr><tr><td style="font-weight:bold;vertical-align:top;">version</td><td style="vertical-align:top;">:</td><td><div></div></td></tr></table></div></td></tr><tr><td style="font-weight:bold;vertical-align:top;">session_id_note_prototype5</td><td style="vertical-align:top;">:</td><td><div>127.0.0.1-ba8e6b65-4e66-454b-bcad-04882b99834c<table><tr><td style="font-weight:bold;vertical-align:top;">comment</td><td style="vertical-align:top;">:</td><td><div></div></td></tr><tr><td style="font-weight:bold;vertical-align:top;">domain</td><td style="vertical-align:top;">:</td><td><div></div></td></tr><tr><td style="font-weight:bold;vertical-align:top;">expires</td><td style="vertical-align:top;">:</td><td><div></div></td></tr><tr><td style="font-weight:bold;vertical-align:top;">httponly</td><td style="vertical-align:top;">:</td><td><div></div></td></tr><tr><td style="font-weight:bold;vertical-align:top;">max-age</td><td style="vertical-align:top;">:</td><td><div></div></td></tr><tr><td style="font-weight:bold;vertical-align:top;">path</td><td style="vertical-align:top;">:</td><td><div></div></td></tr><tr><td style="font-weight:bold;vertical-align:top;">secure</td><td style="vertical-align:top;">:</td><td><div></div></td></tr><tr><td style="font-weight:bold;vertical-align:top;">version</td><td style="vertical-align:top;">:</td><td><div></div></td></tr></table></div></td></tr><tr><td style="font-weight:bold;vertical-align:top;">session_id_notepad</td><td style="vertical-align:top;">:</td><td><div>127.0.0.1-27451a8a-4ba3-4a2e-8d53-e59bce5ab8e7<table><tr><td style="font-weight:bold;vertical-align:top;">comment</td><td style="vertical-align:top;">:</td><td><div></div></td></tr><tr><td style="font-weight:bold;vertical-align:top;">domain</td><td style="vertical-align:top;">:</td><td><div></div></td></tr><tr><td style="font-weight:bold;vertical-align:top;">expires</td><td style="vertical-align:top;">:</td><td><div></div></td></tr><tr><td style="font-weight:bold;vertical-align:top;">httponly</td><td style="vertical-align:top;">:</td><td><div></div></td></tr><tr><td style="font-weight:bold;vertical-align:top;">max-age</td><td style="vertical-align:top;">:</td><td><div></div></td></tr><tr><td style="font-weight:bold;vertical-align:top;">path</td><td style="vertical-align:top;">:</td><td><div></div></td></tr><tr><td style="font-weight:bold;vertical-align:top;">secure</td><td style="vertical-align:top;">:</td><td><div></div></td></tr><tr><td style="font-weight:bold;vertical-align:top;">version</td><td style="vertical-align:top;">:</td><td><div></div></td></tr></table></div></td></tr><tr><td style="font-weight:bold;vertical-align:top;">session_id_notes</td><td style="vertical-align:top;">:</td><td><div>127.0.0.1-819a2400-d674-427d-8b3f-c9441642cb0a<table><tr><td style="font-weight:bold;vertical-align:top;">comment</td><td style="vertical-align:top;">:</td><td><div></div></td></tr><tr><td style="font-weight:bold;vertical-align:top;">domain</td><td style="vertical-align:top;">:</td><td><div></div></td></tr><tr><td style="font-weight:bold;vertical-align:top;">expires</td><td style="vertical-align:top;">:</td><td><div></div></td></tr><tr><td style="font-weight:bold;vertical-align:top;">httponly</td><td style="vertical-align:top;">:</td><td><div></div></td></tr><tr><td style="font-weight:bold;vertical-align:top;">max-age</td><td style="vertical-align:top;">:</td><td><div></div></td></tr><tr><td style="font-weight:bold;vertical-align:top;">path</td><td style="vertical-align:top;">:</td><td><div></div></td></tr><tr><td style="font-weight:bold;vertical-align:top;">secure</td><td style="vertical-align:top;">:</td><td><div></div></td></tr><tr><td style="font-weight:bold;vertical-align:top;">version</td><td style="vertical-align:top;">:</td><td><div></div></td></tr></table></div></td></tr></table></div></td></tr><tr><td style="font-weight:bold;vertical-align:top;">env</td><td style="vertical-align:top;">:</td><td><div><table><tr><td style="font-weight:bold;vertical-align:top;">HTTP_ACCEPT</td><td style="vertical-align:top;">:</td><td><div>text/html,application/xhtml+xml,application/xml;q=0.9,*/*;q=0.8</div></td></tr><tr><td style="font-weight:bold;vertical-align:top;">HTTP_ACCEPT_ENCODING</td><td style="vertical-align:top;">:</td><td><div>gzip, deflate</div></td></tr><tr><td style="font-weight:bold;vertical-align:top;">HTTP_ACCEPT_LANGUAGE</td><td style="vertical-align:top;">:</td><td><div>en-US,en;q=0.5</div></td></tr><tr><td style="font-weight:bold;vertical-align:top;">HTTP_CONNECTION</td><td style="vertical-align:top;">:</td><td><div>keep-alive</div></td></tr><tr><td style="font-weight:bold;vertical-align:top;">HTTP_COOKIE</td><td style="vertical-align:top;">:</td><td><div>session_id_notes=127.0.0.1-819a2400-d674-427d-8b3f-c9441642cb0a; session_id_notepad=127.0.0.1-27451a8a-4ba3-4a2e-8d53-e59bce5ab8e7; session_id_note_prototype5=127.0.0.1-ba8e6b65-4e66-454b-bcad-04882b99834c; session_id_admin=127.0.0.1-8c41f5b5-d810-40d3-a3e9-7c42d595a503</div></td></tr><tr><td style="font-weight:bold;vertical-align:top;">HTTP_HOST</td><td style="vertical-align:top;">:</td><td><div>127.0.0.1:8000</div></td></tr><tr><td style="font-weight:bold;vertical-align:top;">HTTP_USER_AGENT</td><td style="vertical-align:top;">:</td><td><div>Mozilla/5.0 (X11; Ubuntu; Linux i686; rv:28.0) Gecko/20100101 Firefox/28.0</div></td></tr><tr><td style="font-weight:bold;vertical-align:top;">PATH_INFO</td><td style="vertical-align:top;">:</td><td><div>/notepad/default/main</div></td></tr><tr><td style="font-weight:bold;vertical-align:top;">QUERY_STRING</td><td style="vertical-align:top;">:</td><td><div></div></td></tr><tr><td style="font-weight:bold;vertical-align:top;">REMOTE_ADDR</td><td style="vertical-align:top;">:</td><td><div>127.0.0.1</div></td></tr><tr><td style="font-weight:bold;vertical-align:top;">REMOTE_PORT</td><td style="vertical-align:top;">:</td><td><div>40444</div></td></tr><tr><td style="font-weight:bold;vertical-align:top;">REQUEST_METHOD</td><td style="vertical-align:top;">:</td><td><div>GET</div></td></tr><tr><td style="font-weight:bold;vertical-align:top;">SCRIPT_NAME</td><td style="vertical-align:top;">:</td><td><div></div></td></tr><tr><td style="font-weight:bold;vertical-align:top;">SERVER_NAME</td><td style="vertical-align:top;">:</td><td><div>kushal-Inspiron-3521</div></td></tr><tr><td style="font-weight:bold;vertical-align:top;">SERVER_PORT</td><td style="vertical-align:top;">:</td><td><div>8000</div></td></tr><tr><td style="font-weight:bold;vertical-align:top;">SERVER_PROTOCOL</td><td style="vertical-align:top;">:</td><td><div>HTTP/1.1</div></td></tr><tr><td style="font-weight:bold;vertical-align:top;">SERVER_SOFTWARE</td><td style="vertical-align:top;">:</td><td><div>Rocket 1.2.6</div></td></tr><tr><td style="font-weight:bold;vertical-align:top;">app_folders</td><td style="vertical-align:top;">:</td><td><div>set([&#x27;/home/kushal/skynote/web2py/applications/admin/&#x27;, &#x27;/home/kushal/skynote/web2py/applications/notes/&#x27;, &#x27;/home/kushal/skynote/web2py/applications/Note_prototype5/&#x27;, &#x27;/home/kushal/skynote/web2py/applications/notepad/&#x27;])</div></td></tr><tr><td style="font-weight:bold;vertical-align:top;">applications_parent</td><td style="vertical-align:top;">:</td><td><div>/home/kushal/skynote/web2py</div></td></tr><tr><td style="font-weight:bold;vertical-align:top;">cmd_args</td><td style="vertical-align:top;">:</td><td><div><table></table></div></td></tr><tr><td style="font-weight:bold;vertical-align:top;">cmd_options</td><td style="vertical-align:top;">:</td><td><div>&lt;Values at 0xa74a80c: {&#x27;verbose&#x27;: False, &#x27;ip&#x27;: &#x27;127.0.0.1&#x27;, &#x27;debuglevel&#x27;: 30, &#x27;with_scheduler&#x27;: False, &#x27;ips&#x27;: [&#x27;127.0.1.1&#x27;], &#x27;shutdown_timeout&#x27;: 5, &#x27;taskbar&#x27;: False, &#x27;with_coverage&#x27;: False, &#x27;port&#x27;: 8000, &#x27;maxthreads&#x27;: None, &#x27;softcron&#x27;: False, &#x27;server_name&#x27;: &#x27;kushal-Inspiron-3521&#x27;, &#x27;bpython&#x27;: False, &#x27;nogui&#x27;: True, &#x27;pid_filename&#x27;: &#x27;httpserver.pid&#x27;, &#x27;extcron&#x27;: False, &#x27;runcron&#x27;: False, &#x27;run_system_tests&#x27;: False, &#x27;test&#x27;: None, &#x27;folder&#x27;: &#x27;/home/kushal/skynote/web2py&#x27;, &#x27;config&#x27;: &#x27;&#x27;, &#x27;minthreads&#x27;: None, &#x27;shell&#x27;: None, &#x27;run&#x27;: &#x27;&#x27;, &#x27;log_filename&#x27;: &#x27;httpserver.log&#x27;, &#x27;profiler_dir&#x27;: None, &#x27;args&#x27;: [&#x27;&#x27;], &#x27;socket_timeout&#x27;: 5, &#x27;ssl_ca_certificate&#x27;: None, &#x27;scheduler&#x27;: None, &#x27;interfaces&#x27;: None, &#x27;ssl_private_key&#x27;: &#x27;&#x27;, &#x27;scheduler_groups&#x27;: None, &#x27;password&#x27;: &#x27;1&#x27;, &#x27;request_queue_size&#x27;: 5, &#x27;ssl_certificate&#x27;: &#x27;&#x27;, &#x27;cronjob&#x27;: False, &#x27;numthreads&#x27;: None, &#x27;quiet&#x27;: False, &#x27;import_models&#x27;: False, &#x27;timeout&#x27;: 10, &#x27;plain&#x27;: False, &#x27;nobanner&#x27;: False}&gt;</div></td></tr><tr><td style="font-weight:bold;vertical-align:top;">db_sessions</td><td style="vertical-align:top;">:</td><td><div>set([])</div></td></tr><tr><td style="font-weight:bold;vertical-align:top;">debugging</td><td style="vertical-align:top;">:</td><td><div>False</div></td></tr><tr><td style="font-weight:bold;vertical-align:top;">gluon_parent</td><td style="vertical-align:top;">:</td><td><div>/home/kushal/skynote/web2py</div></td></tr><tr><td style="font-weight:bold;vertical-align:top;">http_accept</td><td style="vertical-align:top;">:</td><td><div>text/html,application/xhtml+xml,application/xml;q=0.9,*/*;q=0.8</div></td></tr><tr><td style="font-weight:bold;vertical-align:top;">http_accept_encoding</td><td style="vertical-align:top;">:</td><td><div>gzip, deflate</div></td></tr><tr><td style="font-weight:bold;vertical-align:top;">http_accept_language</td><td style="vertical-align:top;">:</td><td><div>en-US,en;q=0.5</div></td></tr><tr><td style="font-weight:bold;vertical-align:top;">http_connection</td><td style="vertical-align:top;">:</td><td><div>keep-alive</div></td></tr><tr><td style="font-weight:bold;vertical-align:top;">http_cookie</td><td style="vertical-align:top;">:</td><td><div>session_id_notes=127.0.0.1-819a2400-d674-427d-8b3f-c9441642cb0a; session_id_notepad=127.0.0.1-27451a8a-4ba3-4a2e-8d53-e59bce5ab8e7; session_id_note_prototype5=127.0.0.1-ba8e6b65-4e66-454b-bcad-04882b99834c; session_id_admin=127.0.0.1-8c41f5b5-d810-40d3-a3e9-7c42d595a503</div></td></tr><tr><td style="font-weight:bold;vertical-align:top;">http_host</td><td style="vertical-align:top;">:</td><td><div>127.0.0.1:8000</div></td></tr><tr><td style="font-weight:bold;vertical-align:top;">http_user_agent</td><td style="vertical-align:top;">:</td><td><div>Mozilla/5.0 (X11; Ubuntu; Linux i686; rv:28.0) Gecko/20100101 Firefox/28.0</div></td></tr><tr><td style="font-weight:bold;vertical-align:top;">is_jython</td><td style="vertical-align:top;">:</td><td><div>False</div></td></tr><tr><td style="font-weight:bold;vertical-align:top;">is_pypy</td><td style="vertical-align:top;">:</td><td><div>False</div></td></tr><tr><td style="font-weight:bold;vertical-align:top;">is_source</td><td style="vertical-align:top;">:</td><td><div>True</div></td></tr><tr><td style="font-weight:bold;vertical-align:top;">local_hosts</td><td style="vertical-align:top;">:</td><td><div><table><tr><td><div>::1</div></td></tr><tr><td><div>127.0.1.1</div></td></tr><tr><td><div>::ffff:127.0.0.1</div></td></tr><tr><td><div>127.0.0.1</div></td></tr><tr><td><div>kushal-Inspiron-3521</div></td></tr></table></div></td></tr><tr><td style="font-weight:bold;vertical-align:top;">path_info</td><td style="vertical-align:top;">:</td><td><div>/notepad/default/main</div></td></tr><tr><td style="font-weight:bold;vertical-align:top;">query_string</td><td style="vertical-align:top;">:</td><td><div></div></td></tr><tr><td style="font-weight:bold;vertical-align:top;">remote_addr</td><td style="vertical-align:top;">:</td><td><div>127.0.0.1</div></td></tr><tr><td style="font-weight:bold;vertical-align:top;">remote_port</td><td style="vertical-align:top;">:</td><td><div>40444</div></td></tr><tr><td style="font-weight:bold;vertical-align:top;">request_method</td><td style="vertical-align:top;">:</td><td><div>GET</div></td></tr><tr><td style="font-weight:bold;vertical-align:top;">request_uri</td><td style="vertical-align:top;">:</td><td><div>/notepad/default/main</div></td></tr><tr><td style="font-weight:bold;vertical-align:top;">script_name</td><td style="vertical-align:top;">:</td><td><div></div></td></tr><tr><td style="font-weight:bold;vertical-align:top;">server_name</td><td style="vertical-align:top;">:</td><td><div>kushal-Inspiron-3521</div></td></tr><tr><td style="font-weight:bold;vertical-align:top;">server_port</td><td style="vertical-align:top;">:</td><td><div>8000</div></td></tr><tr><td style="font-weight:bold;vertical-align:top;">server_protocol</td><td style="vertical-align:top;">:</td><td><div>HTTP/1.1</div></td></tr><tr><td style="font-weight:bold;vertical-align:top;">server_software</td><td style="vertical-align:top;">:</td><td><div>Rocket 1.2.6</div></td></tr><tr><td style="font-weight:bold;vertical-align:top;">web2py_path</td><td style="vertical-align:top;">:</td><td><div>/home/kushal/skynote/web2py</div></td></tr><tr><td style="font-weight:bold;vertical-align:top;">web2py_version</td><td style="vertical-align:top;">:</td><td><div>2.9.4-stable+timestamp.2014.03.05.04.44.09</div></td></tr><tr><td style="font-weight:bold;vertical-align:top;">wsgi.errors</td><td style="vertical-align:top;">:</td><td><div>&lt;open file &#x27;&lt;stderr&gt;&#x27;, mode &#x27;w&#x27; at 0xb73630d0&gt;</div></td></tr><tr><td style="font-weight:bold;vertical-align:top;">wsgi.file_wrapper</td><td style="vertical-align:top;">:</td><td><div>&lt;class wsgiref.util.FileWrapper at 0xa7160bc&gt;</div></td></tr><tr><td style="font-weight:bold;vertical-align:top;">wsgi.input</td><td style="vertical-align:top;">:</td><td><div>&lt;socket._fileobject object at 0xaf7856ac&gt;</div></td></tr><tr><td style="font-weight:bold;vertical-align:top;">wsgi.multiprocess</td><td style="vertical-align:top;">:</td><td><div>False</div></td></tr><tr><td style="font-weight:bold;vertical-align:top;">wsgi.multithread</td><td style="vertical-align:top;">:</td><td><div>True</div></td></tr><tr><td style="font-weight:bold;vertical-align:top;">wsgi.run_once</td><td style="vertical-align:top;">:</td><td><div>False</div></td></tr><tr><td style="font-weight:bold;vertical-align:top;">wsgi.url_scheme</td><td style="vertical-align:top;">:</td><td><div>http</div></td></tr><tr><td style="font-weight:bold;vertical-align:top;">wsgi.version</td><td style="vertical-align:top;">:</td><td><div><table><tr><td><div>1</div></td></tr><tr><td><div>0</div></td></tr></table></div></td></tr><tr><td style="font-weight:bold;vertical-align:top;">wsgi_errors</td><td style="vertical-align:top;">:</td><td><div>&lt;open file &#x27;&lt;stderr&gt;&#x27;, mode &#x27;w&#x27; at 0xb73630d0&gt;</div></td></tr><tr><td style="font-weight:bold;vertical-align:top;">wsgi_file_wrapper</td><td style="vertical-align:top;">:</td><td><div>&lt;class wsgiref.util.FileWrapper at 0xa7160bc&gt;</div></td></tr><tr><td style="font-weight:bold;vertical-align:top;">wsgi_input</td><td style="vertical-align:top;">:</td><td><div>&lt;socket._fileobject object at 0xaf7856ac&gt;</div></td></tr><tr><td style="font-weight:bold;vertical-align:top;">wsgi_multiprocess</td><td style="vertical-align:top;">:</td><td><div>False</div></td></tr><tr><td style="font-weight:bold;vertical-align:top;">wsgi_multithread</td><td style="vertical-align:top;">:</td><td><div>True</div></td></tr><tr><td style="font-weight:bold;vertical-align:top;">wsgi_run_once</td><td style="vertical-align:top;">:</td><td><div>False</div></td></tr><tr><td style="font-weight:bold;vertical-align:top;">wsgi_url_scheme</td><td style="vertical-align:top;">:</td><td><div>http</div></td></tr><tr><td style="font-weight:bold;vertical-align:top;">wsgi_version</td><td style="vertical-align:top;">:</td><td><div><table><tr><td><div>1</div></td></tr><tr><td><div>0</div></td></tr></table></div></td></tr></table></div></td></tr><tr><td style="font-weight:bold;vertical-align:top;">extension</td><td style="vertical-align:top;">:</td><td><div>html</div></td></tr><tr><td style="font-weight:bold;vertical-align:top;">folder</td><td style="vertical-align:top;">:</td><td><div>/home/kushal/skynote/web2py/applications/notepad/</div></td></tr><tr><td style="font-weight:bold;vertical-align:top;">function</td><td style="vertical-align:top;">:</td><td><div>main</div></td></tr><tr><td style="font-weight:bold;vertical-align:top;">global_settings</td><td style="vertical-align:top;">:</td><td><div><table><tr><td style="font-weight:bold;vertical-align:top;">app_folders</td><td style="vertical-align:top;">:</td><td><div>set([&#x27;/home/kushal/skynote/web2py/applications/admin/&#x27;, &#x27;/home/kushal/skynote/web2py/applications/notes/&#x27;, &#x27;/home/kushal/skynote/web2py/applications/Note_prototype5/&#x27;, &#x27;/home/kushal/skynote/web2py/applications/notepad/&#x27;])</div></td></tr><tr><td style="font-weight:bold;vertical-align:top;">applications_parent</td><td style="vertical-align:top;">:</td><td><div>/home/kushal/skynote/web2py</div></td></tr><tr><td style="font-weight:bold;vertical-align:top;">cmd_args</td><td style="vertical-align:top;">:</td><td><div><table></table></div></td></tr><tr><td style="font-weight:bold;vertical-align:top;">cmd_options</td><td style="vertical-align:top;">:</td><td><div>&lt;Values at 0xa74a80c: {&#x27;verbose&#x27;: False, &#x27;ip&#x27;: &#x27;127.0.0.1&#x27;, &#x27;debuglevel&#x27;: 30, &#x27;with_scheduler&#x27;: False, &#x27;ips&#x27;: [&#x27;127.0.1.1&#x27;], &#x27;shutdown_timeout&#x27;: 5, &#x27;taskbar&#x27;: False, &#x27;with_coverage&#x27;: False, &#x27;port&#x27;: 8000, &#x27;maxthreads&#x27;: None, &#x27;softcron&#x27;: False, &#x27;server_name&#x27;: &#x27;kushal-Inspiron-3521&#x27;, &#x27;bpython&#x27;: False, &#x27;nogui&#x27;: True, &#x27;pid_filename&#x27;: &#x27;httpserver.pid&#x27;, &#x27;extcron&#x27;: False, &#x27;runcron&#x27;: False, &#x27;run_system_tests&#x27;: False, &#x27;test&#x27;: None, &#x27;folder&#x27;: &#x27;/home/kushal/skynote/web2py&#x27;, &#x27;config&#x27;: &#x27;&#x27;, &#x27;minthreads&#x27;: None, &#x27;shell&#x27;: None, &#x27;run&#x27;: &#x27;&#x27;, &#x27;log_filename&#x27;: &#x27;httpserver.log&#x27;, &#x27;profiler_dir&#x27;: None, &#x27;args&#x27;: [&#x27;&#x27;], &#x27;socket_timeout&#x27;: 5, &#x27;ssl_ca_certificate&#x27;: None, &#x27;scheduler&#x27;: None, &#x27;interfaces&#x27;: None, &#x27;ssl_private_key&#x27;: &#x27;&#x27;, &#x27;scheduler_groups&#x27;: None, &#x27;password&#x27;: &#x27;1&#x27;, &#x27;request_queue_size&#x27;: 5, &#x27;ssl_certificate&#x27;: &#x27;&#x27;, &#x27;cronjob&#x27;: False, &#x27;numthreads&#x27;: None, &#x27;quiet&#x27;: False, &#x27;import_models&#x27;: False, &#x27;timeout&#x27;: 10, &#x27;plain&#x27;: False, &#x27;nobanner&#x27;: False}&gt;</div></td></tr><tr><td style="font-weight:bold;vertical-align:top;">db_sessions</td><td style="vertical-align:top;">:</td><td><div>set([])</div></td></tr><tr><td style="font-weight:bold;vertical-align:top;">debugging</td><td style="vertical-align:top;">:</td><td><div>False</div></td></tr><tr><td style="font-weight:bold;vertical-align:top;">gluon_parent</td><td style="vertical-align:top;">:</td><td><div>/home/kushal/skynote/web2py</div></td></tr><tr><td style="font-weight:bold;vertical-align:top;">is_jython</td><td style="vertical-align:top;">:</td><td><div>False</div></td></tr><tr><td style="font-weight:bold;vertical-align:top;">is_pypy</td><td style="vertical-align:top;">:</td><td><div>False</div></td></tr><tr><td style="font-weight:bold;vertical-align:top;">is_source</td><td style="vertical-align:top;">:</td><td><div>True</div></td></tr><tr><td style="font-weight:bold;vertical-align:top;">local_hosts</td><td style="vertical-align:top;">:</td><td><div><table><tr><td><div>::1</div></td></tr><tr><td><div>127.0.1.1</div></td></tr><tr><td><div>::ffff:127.0.0.1</div></td></tr><tr><td><div>127.0.0.1</div></td></tr><tr><td><div>kushal-Inspiron-3521</div></td></tr></table></div></td></tr><tr><td style="font-weight:bold;vertical-align:top;">web2py_version</td><td style="vertical-align:top;">:</td><td><div>2.9.4-stable+timestamp.2014.03.05.04.44.09</div></td></tr></table></div></td></tr><tr><td style="font-weight:bold;vertical-align:top;">is_https</td><td style="vertical-align:top;">:</td><td><div>False</div></td></tr><tr><td style="font-weight:bold;vertical-align:top;">is_local</td><td style="vertical-align:top;">:</td><td><div>True</div></td></tr><tr><td style="font-weight:bold;vertical-align:top;">is_restful</td><td style="vertical-align:top;">:</td><td><div>False</div></td></tr><tr><td style="font-weight:bold;vertical-align:top;">now</td><td style="vertical-align:top;">:</td><td><div>datetime.datetime(2014, 4, 15, 21, 39, 8, 916143)</div></td></tr><tr><td style="font-weight:bold;vertical-align:top;">raw_args</td><td style="vertical-align:top;">:</td><td><div></div></td></tr><tr><td style="font-weight:bold;vertical-align:top;">raw_extension</td><td style="vertical-align:top;">:</td><td><div>None</div></td></tr><tr><td style="font-weight:bold;vertical-align:top;">url</td><td style="vertical-align:top;">:</td><td><div>/notepad/default/main</div></td></tr><tr><td style="font-weight:bold;vertical-align:top;">utcnow</td><td style="vertical-align:top;">:</td><td><div>datetime.datetime(2014, 4, 15, 16, 9, 8, 916177)</div></td></tr><tr><td style="font-weight:bold;vertical-align:top;">uuid</td><td style="vertical-align:top;">:</td><td><div>notepad/127.0.0.1.2014-04-15.21-39-08.e690486c-eb83-4be1-9256-2db35ce6d76a</div></td></tr><tr><td style="font-weight:bold;vertical-align:top;">wsgi</td><td style="vertical-align:top;">:</td><td><div>&lt;gluon.main.LazyWSGI object at 0xaf7c032c&gt;</div></td></tr></table></div>'
tRp58
sS'frames'
p59
(lp60
(dp61
S'file'
p62
S'/home/kushal/skynote/web2py/gluon/restricted.py'
p63
sS'dump'
p64
(dp65
S'environment'
p66
S"{'A': <class 'gluon.html.A'>, 'ANY_OF': <class 'gluon.validators.ANY_OF'>, 'Auth': <class 'gluon.tools.Auth'>, 'B': <class 'gluon.html.B'>, 'BEAUTIFY': <class 'gluon.html.BEAUTIFY'>, 'BODY': <class 'gluon.html.BODY'>, 'BR': <class 'gluon.html.BR'>, 'BUTTON': <class 'gluon.html.BUTTON'>, 'CAT': <class 'gluon.html.CAT'>, 'CENTER': <class 'gluon.html.CENTER'>, ...}"
p67
sS'ccode'
p68
S'<code object <module> at 0xaf4154e8, file "/home...cations/notepad/views/default/main.html", line 1>'
p69
ssS'lnum'
p70
I217
sS'lines'
p71
(dp72
I212
S'    try:'
p73
sI213
S'        if isinstance(code, types.CodeType):'
p74
sI214
S'            ccode = code'
p75
sI215
S'        else:'
p76
sI216
S'            ccode = compile2(code, layer)'
p77
sI217
S'        exec ccode in environment'
p78
sI218
S'    except HTTP:'
p79
sI219
S'        raise'
p80
sI220
S'    except RestrictedError:'
p81
sI221
S'        # do not encapsulate (obfuscate) the original RestrictedError'
p82
ssS'call'
p83
S'(code=\'response.write(\\\'<!DOCTYPE html>\\\\n<html lang="en"..."></script>\\\\n  </body>\\\\n</html>\\\\n\\\', escape=False)\', environment={\'A\': <class \'gluon.html.A\'>, \'ANY_OF\': <class \'gluon.validators.ANY_OF\'>, \'Auth\': <class \'gluon.tools.Auth\'>, \'B\': <class \'gluon.html.B\'>, \'BEAUTIFY\': <class \'gluon.html.BEAUTIFY\'>, \'BODY\': <class \'gluon.html.BODY\'>, \'BR\': <class \'gluon.html.BR\'>, \'BUTTON\': <class \'gluon.html.BUTTON\'>, \'CAT\': <class \'gluon.html.CAT\'>, \'CENTER\': <class \'gluon.html.CENTER\'>, ...}, layer=\'/home/kushal/skynote/web2py/applications/notepad/views/default/main.html\')'
p84
sS'func'
p85
S'restricted'
p86
sa(dp87
g62
S'/home/kushal/skynote/web2py/applications/notepad/views/default/main.html'
p88
sg64
(dp89
S'content'
p90
S'undefined'
p91
sS'ans'
p92
g91
ssg70
I62
sg71
(dp93
I64
S'response.write(auth.user.id)'
p94
sI65
S'response.write(\',ans)\\n\\n}\\n//   Complete this Function Later when it Gets Triggered and How to use\\n\\n\\nfunction SaveTitle () {\\nvar title=document.getElementById(\\\'Title\\\');\\nlocalStorage.setItem("Title",title.value); \\n\\n\\n}\\n\\n my_tag=\\\'None\\\'\\nvar my_title=\\\'None\\\'\\n\\n\\nfunction SaveTags () {  \\n\\n\\n\\n\\n my_tag=document.getElementById(\\\'Tags\\\').value;\\n my_title=localStorage.getItem("Title");\\n\\n}\\n\\n\\nfunction set_secret( the_head ) {\\n  var xmlhttp;\\nif (window.XMLHttpRequest)\\n  {xmlhttp=new XMLHttpRequest();\\n  }\\nelse\\n  {xmlhttp=new ActiveXObject("Microsoft.XMLHTTP");\\n  }\\ndocument.getElementById("")\\n\\nxmlhttp.open("GET","secret?head="+the_head,true);\\nxmlhttp.send();\\n\\n  }\\n\\n\\nfunction loadXMLDoc()\\n{\\nvar temp=localStorage.getItem(\', escape=False)'
p95
sI66
S'response.write(auth.user.id)'
p96
sI67
S'response.write(\')\\ntemp=eval("("+temp+")")\\ntemp=eval("("+temp+")")\\n\\nfor(var i in temp)\\n{ \\n\\nvar xmlhttp;\\nif (window.XMLHttpRequest)\\n  {xmlhttp=new XMLHttpRequest();\\n  }\\nelse\\n  {xmlhttp=new ActiveXObject("Microsoft.XMLHTTP");\\n  }\\nxmlhttp.onreadystatechange=function()\\n  {\\n  if (xmlhttp.readyState==4 && xmlhttp.status==200)\\n    {\\n    document.getElementById("response").innerHTML=xmlhttp.responseText;\\n    }\\n  }\\n var title=i\\n  var info=temp[i][0]\\n  var modified=temp[i][1];\\n\\nxmlhttp.open("GET","table_update?Title="+title+"&&Info="+info+"&&Modified="+modified,true);\\nxmlhttp.send();\\n}\\n\\n\\nlocalStorage.removeItem(\', escape=False)'
p97
sI68
S'response.write(auth.user.id)'
p98
sI69
S'response.write(\')  \\nlocalStorage.removeItem("Title")\\nlocalStorage.removeItem("stored_content")\\n\\nvar xmlhttp1;\\nif (window.XMLHttpRequest)\\n  {xmlhttp1=new XMLHttpRequest();\\n  }\\nelse\\n  {xmlhttp1=new ActiveXObject("Microsoft.XMLHTTP");\\n  }\\nxmlhttp1.onreadystatechange=function()\\n  {\\n  if (xmlhttp1.readyState==4 && xmlhttp1.status==200)\\n    {\\n    document.getElementById("response1").innerHTML=xmlhttp1.responseText;\\n    }\\n  }\\n\\n\\nxmlhttp1.open("GET","save_tags?Title="+my_title+"&&Tags="+my_tag,true);\\n xmlhttp1.send();\\n\\n\\n}\\n\\nfunction go_to_url (title) {\\n      //alert(title);\\n      //redirect\', escape=False)'
p99
sI70
S"response.write(URL('http://127.0.0.1:8000/Note/default/content'))"
p100
sI71
S'response.write(\';//+\\\'?head=\\\'+title;\\n      var inside=document.getElementById(\\\'Search\\\');\\n      inside.value=title; \\n      set_secret(title);\\n   \\n}\\n\\nfunction Find_Suggestion()\\n{\\nvar xmlhttp;\\nif (window.XMLHttpRequest)\\n  {xmlhttp=new XMLHttpRequest();\\n  }\\nelse\\n  {xmlhttp=new ActiveXObject("Microsoft.XMLHTTP");\\n  } \\nxmlhttp.onreadystatechange=function()\\n  {\\n  if (xmlhttp.readyState==4 && xmlhttp.status==200)\\n    {\\n    Info_Title=xmlhttp.responseText;\\n//    document.getElementById("display").innerHTML=Info_Title;\\n    json_output=eval("("+Info_Title+")");\\n\\n   var myNode = document.getElementById("display");\\n     while (myNode.firstChild)\\n      {\\n           myNode.removeChild(myNode.firstChild);\\n      } \\n\\n        for (var i in json_output["names"])\\n        {\\n              var temp=json_output["names"][i];\\n              var div = document.createElement(\\\'div\\\')\\n              div.id=i;\\n              div.innerHTML=temp;\\n              div.setAttribute("onclick","go_to_url(this.innerHTML);");\\n              document.getElementById("display").appendChild(div)                \\n               //URL(c=\\\'default\\\',args=[\\\'AAA\\\'], vars={\\\'id\\\': \\\'9\\\'}))}}\\n//<div id="myid"></div>//json_output["names"][i]\\n\\n        }\\n\\n    }\\n  }\\n\\nvar user_input=document.getElementById("Search").value\\n\\n\\n\\n\\nif (user_input.match(/^\\\\s*$/)) {\\n    // nothing, or nothing but whitespace\\n\\n  document.getElementById("display").innerHTML=\\\'\\\'\\n} \\n\\nelse\\n{\\nxmlhttp.open("GET","auto_suggestion?sug="+user_input,true);\\nxmlhttp.send();\\n}\\n}\\n\\nfunction Find_Suggestion_by_Tags()\\n{\\nvar xmlhttp;\\nif (window.XMLHttpRequest)\\n  {// code for IE7+, Firefox, Chrome, Opera, Safari\\n  xmlhttp=new XMLHttpRequest();\\n  }\\nelse\\n  {// code for IE6, IE5\\n  xmlhttp=new ActiveXObject("Microsoft.XMLHTTP");\\n  }\\nxmlhttp.onreadystatechange=function()\\n  {\\nif (xmlhttp.readyState==4 && xmlhttp.status==200)\\n    {\\n    Info_Title=xmlhttp.responseText;\\n//    document.getElementById("display").innerHTML=Info_Title;\\n    json_output=eval("("+Info_Title+")");\\n\\n   var myNode = document.getElementById("display_tags");\\n     while (myNode.firstChild)\\n      {\\n           myNode.removeChild(myNode.firstChild);\\n      } \\n\\n        for (var i in json_output["names"])\\n        {\\n              var temp=json_output["names"][i];\\n              var div = document.createElement(\\\'div\\\')\\n              div.id=i;\\n              div.innerHTML=temp;\\n              div.setAttribute("onclick","go_to_url(this.innerHTML);");\\n              document.getElementById("display_tags").appendChild(div)                \\n               //URL(c=\\\'default\\\',args=[\\\'AAA\\\'], vars={\\\'id\\\': \\\'9\\\'}))}}\\n//<div id="myid"></div>//json_output["names"][i]\\n\\n        }\\n\\n    }\\n  }\\n\\nvar user_input=document.getElementById("Search_tags").value\\n\\nif (user_input.match(/^\\\\s*$/)) {\\n    // nothing, or nothing but whitespace\\n\\n  document.getElementById("display_tags").innerHTML=\\\'\\\'\\n} \\nelse\\n{\\nxmlhttp.open("GET","auto_suggestion_by_tags?sug="+user_input,true);\\nxmlhttp.send();\\n}\\n}\\n\\n\\n</script>\\n   \\n\\n   <style>\\n\\n     textarea {\\n       font-family: \\\'The Girl Next Door\\\', cursive;\\n       text-shadow: 4px 4px 4px #aaa;\\n       font-size: 28px;\\n     }\\n\\n   </style>\\n\\n\\n    <div id ="main_cover">\\n\\n    <input  id="Title" />\\n    <button id="save_title" onclick="SaveTitle()"> Save Title </button>\\n    \\n    <button id="restore_content" onclick="Restore()"> Restore </button>\\n    <textarea id="main_content" onclick="Restore()"></textarea>\\n    <button id="sync" onclick="loadXMLDoc()">Sync Now</button>\\n\\n    <!--div id="fb-root"></div>\\n\\n    <fb:login-button show-faces="true" width="200" max-rows="1"></fb:login-button>\\n  <div class="fb-like" data-href="http://google.com" data-layout="standard" data-action="like" data-show-faces="true" data-share="true">\\n  </div-->\\n\\n    <div id="response"></div>\\n\\n    <input  id="Search"/ onkeyup="Find_Suggestion()">\\n    <a href="manage"><button id="Open"> Open </button></a>\\n\\n    <div id="display"></div>\\n\\n\\n    </div>\\n\\n\\n     <div id="tag">\\n    <input placeholder="enter tags"   id="Tags"\\\\>\\n    <button id="save_tags" onclick="SaveTags()" >Save Tags</button>\\n    </div>\\n\\n    <input id="Search_tags" placeholder="Search by Tags"  onkeyup="Find_Suggestion_by_Tags()" > \\n        <div id="display_tags"></div>\\n\\n        <div id="display"></div>\\n    <button onclick="location.href=\\\'\', escape=False)'
p101
sI72
S"response.write(URL(r=request,f='view_all'))"
p102
sI53
S"response.write(URL('static','js/chart.js'))"
p103
sI54
S'response.write(\'"></script>\\n\\n\\n    <!-- HTML5 shim and Respond.js IE8 support of HTML5 elements and media queries -->\\n    <!--[if lt IE 9]>\\n      <script src="https://oss.maxcdn.com/libs/html5shiv/3.7.0/html5shiv.js"></script>\\n      <script src="https://oss.maxcdn.com/libs/respond.js/1.3.0/respond.min.js"></script>\\n    <![endif]-->\\n  </head>\\n\\n  <body>\\n\\n    <!-- Fixed navbar -->\\n\\n    <div class="navbar navbar-default navbar-fixed-top"> <!--Correct-->\\n      <div class="container">\\n\\t          \', escape=False)'
p104
sI55
S'is_mobile=request.user_agent().is_mobile'
p105
sI56
S'response.write(\'\\n        <div class="navbar-header">\\n          <button type="button" class="navbar-toggle" data-toggle="collapse" data-target=".navbar-collapse">\\n            <span class="icon-bar"></span>\\n            <span class="icon-bar"></span>\\n            <span class="icon-bar"></span>\\n          </button>\\n\\t  \', escape=False)'
p106
sI57
S"response.write(response.logo or '')"
p107
sI58
S'response.write(\'\\t\\n\\t   <a class="navbar-brand" href="#"><i class="fa fa-bolt"></i></a>\\n        </div>\\n        <div class="navbar-collapse collapse">\\n\\t\\t<ul id="navbar" class="nav pull-right">\', escape=False)'
p108
sI59
S'response.write(\'auth\' in globals() and auth.navbar(mode="dropdown") or \'\')'
p109
sI60
S'response.write(\'</ul>     \\n\\t\\t\\t <!--This part does the login button-->\\n \\t\\t   \\n          \\n\\t   </div><!--/.nav-collapse -->\\n      </div>\\n    </div>\\n\\n\\n\\t<div id="hello">\\n\\t    <div class="container">\\n\\t    \\t<div class="row">\\n\\t    \\t\\t<div class="col-lg-8 col-lg-offset-2 centered">\\n\\t\\t\\t\\t\', escape=False)'
p110
sI61
S'response.write(\'\\n  \\n<link href=\\\'http://fonts.googleapis.com/css?family=The+Girl+Next+Door\\\' rel=\\\'stylesheet\\\' type=\\\'text/css\\\'>\\n   \\n<script type="text/javascript">\\n\\n//Format is --- {Title:[content,time]}\\ndocument.addEventListener("DOMContentLoaded", function() {\\ndocument.getElementById(\\\'Title\\\').focus()\\n});\\n\\n\\n/* Improve the check field for the text-box ..... choose a better method .......*/\\n\\nfunction check_empty()\\n{\\n   if(document.getElementById(\\\'Title\\\').value)\\n    return ;\\ndocument.getElementById(\\\'Title\\\').focus()\\nalert("please enter a title")\\n\\n}\\nfunction Restore(){\\n\\n/*To ensure that text-field is valid . */ \\n\\n  check_empty()\\n\\n\\nvar content = document.getElementById("main_content");\\nvar title=document.getElementById(\\\'Title\\\');\\nvar doc_title=localStorage.getItem("Title");\\nvar ans=localStorage.getItem(\', escape=False)'
p111
sI62
S'response.write(auth.user.id)'
p112
sI63
S'response.write(\')\\n\\n \\nif (localStorage.getItem("stored_content")) {\\n    content.value = localStorage.getItem("stored_content");\\n  }\\n \\n setInterval(function(){\\n    localStorage.setItem("stored_content", content.value);\\n }, 1000);\\n\\nif (localStorage.getItem("Title")) {\\n    title.value = localStorage.getItem("Title");\\n  }\\n \\n setInterval(function(){\\n\\n    localStorage.setItem("Title", title.value);\\n }, 1000);\\n\\n\\n\\n\\nif(ans==null)\\n  {\\n    \\n  ans=\\\'"\\\\\\\\{\\\'\\n  ans+=\\\'\\\\\\\\"\\\'+doc_title+\\\'\\\\\\\\"\\\\\\\\:\\\'\\n  ans+="\\\\\\\\["\\n  ans+=\\\'\\\\\\\\"\\\'+content.value+\\\'\\\\\\\\"\\\\\\\\,\\\'\\n  ans+=\\\'\\\\\\\\"\\\'+new Date()+\\\'\\\\\\\\"\\\'\\n  ans+="\\\\\\\\]"\\n  ans+=\\\'\\\\\\\\}"\\\'\\n\\n  //x1="\\\\{\\\\"as\\\\"\\\\:\\\\[\\\\"1qw\\\\"\\\\,\\\\"12\\\\"\\\\]\\\\}"\\n\\n/* trial version\\n  ans="\\\'{"\\n  ans+=\\\'"\\\'+doc_title+\\\'":\\\'\\n  ans+="\\\'["\\n  ans+=\\\'"\\\'+content.value+\\\'",\\\'\\n  ans+=\\\'"\\\'+new Date()+\\\'"\\\'\\n  ans+="]\\\'"\\n  ans+="}\\\'"\\n\\n*/\\n  }\\n\\nelse\\n  {ans=eval("("+ans+")")\\n   ans=eval("("+ans+")")\\n   ans[doc_title]=[content.value,new Date()]\\n   /*var z=ans[doc_title]\\n   alert(z)\\n   z[0]=content.value\\n   z[1]=new Date()\\n   ans[doc_title]=z\\n  *///conversion to proper string   \\n   var count=0\\n   var temp=ans\\n\\n//x1="\\\\{\\\\"as\\\\"\\\\:\\\\[\\\\"1qw\\\\"\\\\,\\\\"12\\\\"\\\\]\\\\}"\\n   ans=\\\'"\\\\\\\\{\\\'\\n   for(var i in temp)\\n      {    \\n        if(count!=0)\\n            ans+= "\\\\\\\\,"\\n        \\n         ans+= \\\'\\\\\\\\"\\\'+i+\\\'\\\\\\\\"\\\'+\\\'\\\\\\\\:\\\\\\\\[\\\'\\n         var counter=0\\n         for(var one in temp[i])\\n          {\\n           if(counter!=0)\\n            ans+= "\\\\\\\\," \\n            ans+= \\\'\\\\\\\\"\\\'+temp[i][one]+\\\'\\\\\\\\"\\\'\\n            counter+=1\\n          }\\n        count+=1\\n          ans+=\\\'\\\\\\\\]\\\'\\n        }\\n\\n    ans+=\\\'\\\\\\\\}"\\\'\\n}\\nlocalStorage.setItem(\', escape=False)'
p113
ssg83
S'()'
p114
sg85
S'<module>'
p115
sasS'pyver'
p116
S'Python 2.7.3: /usr/bin/python (prefix: /usr)'
p117
sS'session'
p118
g57
(S's\x9c\x00\x00\x00<div><table><tr><td style="font-weight:bold;vertical-align:top;">flash</td><td style="vertical-align:top;">:</td><td><div>None</div></td></tr></table></div>'
tRp119
sS'etype'
p120
S"<type 'exceptions.AttributeError'>"
p121
sS'date'
p122
S'Tue Apr 15 21:39:08 2014'
p123
sS'response'
p124
g57
(S's\xfa3\x00\x00<div><table><tr><td style="font-weight:bold;vertical-align:top;">body</td><td style="vertical-align:top;">:</td><td><div>&lt;cStringIO.StringO object at 0xaf7a2b60&gt;</div></td></tr><tr><td style="font-weight:bold;vertical-align:top;">cookies</td><td style="vertical-align:top;">:</td><td><div><table><tr><td style="font-weight:bold;vertical-align:top;">session_id_notepad</td><td style="vertical-align:top;">:</td><td><div>127.0.0.1-27451a8a-4ba3-4a2e-8d53-e59bce5ab8e7<table><tr><td style="font-weight:bold;vertical-align:top;">comment</td><td style="vertical-align:top;">:</td><td><div></div></td></tr><tr><td style="font-weight:bold;vertical-align:top;">domain</td><td style="vertical-align:top;">:</td><td><div></div></td></tr><tr><td style="font-weight:bold;vertical-align:top;">expires</td><td style="vertical-align:top;">:</td><td><div></div></td></tr><tr><td style="font-weight:bold;vertical-align:top;">httponly</td><td style="vertical-align:top;">:</td><td><div></div></td></tr><tr><td style="font-weight:bold;vertical-align:top;">max-age</td><td style="vertical-align:top;">:</td><td><div></div></td></tr><tr><td style="font-weight:bold;vertical-align:top;">path</td><td style="vertical-align:top;">:</td><td><div>/</div></td></tr><tr><td style="font-weight:bold;vertical-align:top;">secure</td><td style="vertical-align:top;">:</td><td><div></div></td></tr><tr><td style="font-weight:bold;vertical-align:top;">version</td><td style="vertical-align:top;">:</td><td><div></div></td></tr></table></div></td></tr></table></div></td></tr><tr><td style="font-weight:bold;vertical-align:top;">delimiters</td><td style="vertical-align:top;">:</td><td><div><table><tr><td><div>{{</div></td></tr><tr><td><div>}}</div></td></tr></table></div></td></tr><tr><td style="font-weight:bold;vertical-align:top;">files</td><td style="vertical-align:top;">:</td><td><div><table><tr><td><div>/notepad/static/js/jquery.js</div></td></tr><tr><td><div>/notepad/static/css/calendar.css</div></td></tr><tr><td><div>/notepad/static/js/calendar.js</div></td></tr><tr><td><div>/notepad/static/js/web2py.js</div></td></tr><tr><td><div>/notepad/static/css/web2py.css</div></td></tr><tr><td><div>/notepad/static/css/bootstrap.min.css</div></td></tr><tr><td><div>/notepad/static/css/bootstrap-responsive.min.css</div></td></tr><tr><td><div>/notepad/static/css/web2py_bootstrap.css</div></td></tr></table></div></td></tr><tr><td style="font-weight:bold;vertical-align:top;">flash</td><td style="vertical-align:top;">:</td><td><div></div></td></tr><tr><td style="font-weight:bold;vertical-align:top;">generic_patterns</td><td style="vertical-align:top;">:</td><td><div><table><tr><td><div>*</div></td></tr></table></div></td></tr><tr><td style="font-weight:bold;vertical-align:top;">google_analytics_id</td><td style="vertical-align:top;">:</td><td><div>None</div></td></tr><tr><td style="font-weight:bold;vertical-align:top;">headers</td><td style="vertical-align:top;">:</td><td><div><table><tr><td style="font-weight:bold;vertical-align:top;">X-Powered-By</td><td style="vertical-align:top;">:</td><td><div>web2py</div></td></tr></table></div></td></tr><tr><td style="font-weight:bold;vertical-align:top;">logo</td><td style="vertical-align:top;">:</td><td><div><a class="brand" href="http://www.web2py.com/"><b>web<span>2</span>py</b>&trade;&nbsp;</a></div></td></tr><tr><td style="font-weight:bold;vertical-align:top;">menu</td><td style="vertical-align:top;">:</td><td><div><table><tr><td><div><table><tr><td><div>Home</div></td></tr><tr><td><div>False</div></td></tr><tr><td><div>/notepad/default/main</div></td></tr><tr><td><div><table></table></div></td></tr></table></div></td></tr><tr><td><div><table><tr><td><div><span class="highlighted">web2py</span></div></td></tr><tr><td><div>False</div></td></tr><tr><td><div>http://web2py.com</div></td></tr><tr><td><div><table><tr><td><div><table><tr><td><div>My Sites</div></td></tr><tr><td><div>False</div></td></tr><tr><td><div>/admin/default/site</div></td></tr></table></div></td></tr><tr><td><div><table><tr><td><div>This App</div></td></tr><tr><td><div>False</div></td></tr><tr><td><div>/admin/default/design/notepad</div></td></tr><tr><td><div>[(&lt;lazyT &#x27;Controller&#x27;&gt;, False, &#x27;/admin/default/edit/notepad/controllers/default.py&#x27;), (&lt;lazyT &#x27;View&#x27;&gt;, False, &#x27;/admin/default/edit/notepad/views/default/main.html&#x27;), (&lt;lazyT &#x27;Layout&#x27;&gt;, False, &#x27;/admin/default/edit/notepad/views/layout.html&#x27;), (&lt;lazyT &#x27;Stylesheet&#x27;&gt;, False, &#x27;/admin/default/edit/notepad/static/css/web2py.css&#x27;), (&lt;lazyT &#x27;DB Model&#x27;&gt;, False, &#x27;/admin/default/edit/notepad/models/db.py&#x27;), (&lt;lazyT &#x27;Menu Model&#x27;&gt;, False, &#x27;/admin/default/edit/notepad/models/menu.py&#x27;), (&lt;lazyT &#x27;Database&#x27;&gt;, False, &#x27;/notepad/appadmin/index&#x27;), (&lt;lazyT &#x27;Errors&#x27;&gt;, False, &#x27;/admin/default/errors/notepad&#x27;), (&lt;lazyT &#x27;About&#x27;&gt;, False, &#x27;/admin/default/about/notepad&#x27;)]</div></td></tr></table></div></td></tr><tr><td><div><table><tr><td><div>web2py.com</div></td></tr><tr><td><div>False</div></td></tr><tr><td><div>http://www.web2py.com</div></td></tr><tr><td><div>[(&lt;lazyT &#x27;Download&#x27;&gt;, False, &#x27;http://www.web2py.com/examples/default/download&#x27;), (&lt;lazyT &#x27;Support&#x27;&gt;, False, &#x27;http://www.web2py.com/examples/default/support&#x27;), (&lt;lazyT &#x27;Demo&#x27;&gt;, False, &#x27;http://web2py.com/demo_admin&#x27;), (&lt;lazyT &#x27;Quick Examples&#x27;&gt;, False, &#x27;http://web2py.com/examples/default/examples&#x27;), (&lt;lazyT &#x27;FAQ&#x27;&gt;, False, &#x27;http://web2py.com/AlterEgo&#x27;), (&lt;lazyT &#x27;Videos&#x27;&gt;, False, &#x27;http://www.web2py.com/examples/default/videos/&#x27;), (&lt;lazyT &#x27;Free Applications&#x27;&gt;, False, &#x27;http://web2py.com/appliances&#x27;), (&lt;lazyT &#x27;Plugins&#x27;&gt;, False, &#x27;http://web2py.com/plugins&#x27;), (&lt;lazyT &#x27;Layouts&#x27;&gt;, False, &#x27;http://web2py.com/layouts&#x27;), (&lt;lazyT &#x27;Recipes&#x27;&gt;, False, &#x27;http://web2pyslices.com/&#x27;), (&lt;lazyT &#x27;Semantic&#x27;&gt;, False, &#x27;http://web2py.com/semantic&#x27;)]</div></td></tr></table></div></td></tr><tr><td><div><table><tr><td><div>Documentation</div></td></tr><tr><td><div>False</div></td></tr><tr><td><div>http://www.web2py.com/book</div></td></tr><tr><td><div>[(&lt;lazyT &#x27;Preface&#x27;&gt;, False, &#x27;http://www.web2py.com/book/default/chapter/00&#x27;), (&lt;lazyT &#x27;Introduction&#x27;&gt;, False, &#x27;http://www.web2py.com/book/default/chapter/01&#x27;), (&lt;lazyT &#x27;Python&#x27;&gt;, False, &#x27;http://www.web2py.com/book/default/chapter/02&#x27;), (&lt;lazyT &#x27;Overview&#x27;&gt;, False, &#x27;http://www.web2py.com/book/default/chapter/03&#x27;), (&lt;lazyT &#x27;The Core&#x27;&gt;, False, &#x27;http://www.web2py.com/book/default/chapter/04&#x27;), (&lt;lazyT &#x27;The Views&#x27;&gt;, False, &#x27;http://www.web2py.com/book/default/chapter/05&#x27;), (&lt;lazyT &#x27;Database&#x27;&gt;, False, &#x27;http://www.web2py.com/book/default/chapter/06&#x27;), (&lt;lazyT &#x27;Forms and Validators&#x27;&gt;, False, &#x27;http://www.web2py.com/book/default/chapter/07&#x27;), (&lt;lazyT &#x27;Email and SMS&#x27;&gt;, False, &#x27;http://www.web2py.com/book/default/chapter/08&#x27;), (&lt;lazyT &#x27;Access Control&#x27;&gt;, False, &#x27;http://www.web2py.com/book/default/chapter/09&#x27;), (&lt;lazyT &#x27;Services&#x27;&gt;, False, &#x27;http://www.web2py.com/book/default/chapter/10&#x27;), (&lt;lazyT &#x27;Ajax Recipes&#x27;&gt;, False, &#x27;http://www.web2py.com/book/default/chapter/11&#x27;), (&lt;lazyT &#x27;Components and Plugins&#x27;&gt;, False, &#x27;http://www.web2py.com/book/default/chapter/12&#x27;), (&lt;lazyT &#x27;Deployment Recipes&#x27;&gt;, False, &#x27;http://www.web2py.com/book/default/chapter/13&#x27;), (&lt;lazyT &#x27;Other Recipes&#x27;&gt;, False, &#x27;http://www.web2py.com/book/default/chapter/14&#x27;), (&lt;lazyT &#x27;Buy this book&#x27;&gt;, False, &#x27;http://stores.lulu.com/web2py&#x27;)]</div></td></tr></table></div></td></tr><tr><td><div><table><tr><td><div>Community</div></td></tr><tr><td><div>False</div></td></tr><tr><td><div>None</div></td></tr><tr><td><div>[(&lt;lazyT &#x27;Groups&#x27;&gt;, False, &#x27;http://www.web2py.com/examples/default/usergroups&#x27;), (&lt;lazyT &#x27;Twitter&#x27;&gt;, False, &#x27;http://twitter.com/web2py&#x27;), (&lt;lazyT &#x27;Live Chat&#x27;&gt;, False, &#x27;http://webchat.freenode.net/?channels=web2py&#x27;)]</div></td></tr></table></div></td></tr><tr><td><div><table><tr><td><div>Plugins</div></td></tr><tr><td><div>False</div></td></tr><tr><td><div>None</div></td></tr><tr><td><div>[(&#x27;plugin_wiki&#x27;, False, &#x27;http://web2py.com/examples/default/download&#x27;), (&lt;lazyT &#x27;Other Plugins&#x27;&gt;, False, &#x27;http://web2py.com/plugins&#x27;), (&lt;lazyT &#x27;Layout Plugins&#x27;&gt;, False, &#x27;http://web2py.com/layouts&#x27;)]</div></td></tr></table></div></td></tr></table></div></td></tr></table></div></td></tr></table></div></td></tr><tr><td style="font-weight:bold;vertical-align:top;">meta</td><td style="vertical-align:top;">:</td><td><div><table><tr><td style="font-weight:bold;vertical-align:top;">author</td><td style="vertical-align:top;">:</td><td><div>Your Name &lt;you@example.com&gt;</div></td></tr><tr><td style="font-weight:bold;vertical-align:top;">description</td><td style="vertical-align:top;">:</td><td><div>a cool new app</div></td></tr><tr><td style="font-weight:bold;vertical-align:top;">generator</td><td style="vertical-align:top;">:</td><td><div>Web2py Web Framework</div></td></tr><tr><td style="font-weight:bold;vertical-align:top;">keywords</td><td style="vertical-align:top;">:</td><td><div>web2py, python, framework</div></td></tr></table></div></td></tr><tr><td style="font-weight:bold;vertical-align:top;">models_to_run</td><td style="vertical-align:top;">:</td><td><div><table><tr><td><div>^\\w+\\.py$</div></td></tr><tr><td><div>^default/\\w+\\.py$</div></td></tr><tr><td><div>^default/main/\\w+\\.py$</div></td></tr></table></div></td></tr><tr><td style="font-weight:bold;vertical-align:top;">postprocessing</td><td style="vertical-align:top;">:</td><td><div><table></table></div></td></tr><tr><td style="font-weight:bold;vertical-align:top;">session_client</td><td style="vertical-align:top;">:</td><td><div>127.0.0.1</div></td></tr><tr><td style="font-weight:bold;vertical-align:top;">session_cookie_compression_level</td><td style="vertical-align:top;">:</td><td><div>None</div></td></tr><tr><td style="font-weight:bold;vertical-align:top;">session_cookie_expires</td><td style="vertical-align:top;">:</td><td><div>None</div></td></tr><tr><td style="font-weight:bold;vertical-align:top;">session_cookie_key</td><td style="vertical-align:top;">:</td><td><div>None</div></td></tr><tr><td style="font-weight:bold;vertical-align:top;">session_data_name</td><td style="vertical-align:top;">:</td><td><div>session_data_notepad</div></td></tr><tr><td style="font-weight:bold;vertical-align:top;">session_file</td><td style="vertical-align:top;">:</td><td><div>&lt;open file &#x27;/home/kushal/skynote/web2py/applications/notepad/sessions/127.0.0.1-27451a8a-4ba3-4a2e-8d53-e59bce5ab8e7&#x27;, mode &#x27;rb+&#x27; at 0xa83fb20&gt;</div></td></tr><tr><td style="font-weight:bold;vertical-align:top;">session_filename</td><td style="vertical-align:top;">:</td><td><div>/home/kushal/skynote/web2py/applications/notepad/sessions/127.0.0.1-27451a8a-4ba3-4a2e-8d53-e59bce5ab8e7</div></td></tr><tr><td style="font-weight:bold;vertical-align:top;">session_hash</td><td style="vertical-align:top;">:</td><td><div>5364f5bb253f43b5d66c79a8389756b1</div></td></tr><tr><td style="font-weight:bold;vertical-align:top;">session_id</td><td style="vertical-align:top;">:</td><td><div>127.0.0.1-27451a8a-4ba3-4a2e-8d53-e59bce5ab8e7</div></td></tr><tr><td style="font-weight:bold;vertical-align:top;">session_id_name</td><td style="vertical-align:top;">:</td><td><div>session_id_notepad</div></td></tr><tr><td style="font-weight:bold;vertical-align:top;">session_locked</td><td style="vertical-align:top;">:</td><td><div>True</div></td></tr><tr><td style="font-weight:bold;vertical-align:top;">session_masterapp</td><td style="vertical-align:top;">:</td><td><div>notepad</div></td></tr><tr><td style="font-weight:bold;vertical-align:top;">session_new</td><td style="vertical-align:top;">:</td><td><div>False</div></td></tr><tr><td style="font-weight:bold;vertical-align:top;">session_storage_type</td><td style="vertical-align:top;">:</td><td><div>file</div></td></tr><tr><td style="font-weight:bold;vertical-align:top;">status</td><td style="vertical-align:top;">:</td><td><div>200</div></td></tr><tr><td style="font-weight:bold;vertical-align:top;">subtitle</td><td style="vertical-align:top;">:</td><td><div></div></td></tr><tr><td style="font-weight:bold;vertical-align:top;">title</td><td style="vertical-align:top;">:</td><td><div>Notepad</div></td></tr><tr><td style="font-weight:bold;vertical-align:top;">view</td><td style="vertical-align:top;">:</td><td><div>default/main.html</div></td></tr></table></div>'
tRp125
sS'locals'
p126
(dp127
S'Service'
p128
S"<class 'gluon.tools.Service'>"
p129
sS'OBJECT'
p130
S"<class 'gluon.html.OBJECT'>"
p131
sS'SQLDB'
p132
S"<class 'gluon.dal.DAL'>"
p133
sg118
S"<Storage {'flash': None, '_user_agent': <Storage...orage {'version': '28.0', 'name': 'Firefox'}>}>}>"
p134
sS'LINK'
p135
S"<class 'gluon.html.LINK'>"
p136
sS'BR'
p137
S"<class 'gluon.html.BR'>"
p138
sS'local_import'
p139
S'<function <lambda>>'
p140
sS'OPTGROUP'
p141
S"<class 'gluon.html.OPTGROUP'>"
p142
sS'__package__'
p143
S'None'
p144
sS'PRE'
p145
S"<class 'gluon.html.PRE'>"
p146
sS'IS_INT_IN_RANGE'
p147
S"<class 'gluon.validators.IS_INT_IN_RANGE'>"
p148
sS'left_sidebar_enabled'
p149
S'False'
p150
sS'IS_LOWER'
p151
S"<class 'gluon.validators.IS_LOWER'>"
p152
sS'IS_STRONG'
p153
S"<class 'gluon.validators.IS_STRONG'>"
p154
sS'cache'
p155
S'<gluon.cache.Cache object>'
p156
sS'IS_IN_DB'
p157
S"<class 'gluon.validators.IS_IN_DB'>"
p158
sS'TAG'
p159
S'<gluon.html.__TAG__ object>'
p160
sS'SQLField'
p161
S"<class 'gluon.dal.Field'>"
p162
sS'mail'
p163
S'<gluon.tools.Mail object>'
p164
sS'BODY'
p165
S"<class 'gluon.html.BODY'>"
p166
sS'IS_DATE_IN_RANGE'
p167
S"<class 'gluon.validators.IS_DATE_IN_RANGE'>"
p168
sS'IFRAME'
p169
S"<class 'gluon.html.IFRAME'>"
p170
sS'URL'
p171
S'<function URL>'
p172
sS'__file__'
p173
S"'/home/kushal/skynote/web2py/applications/notepad/views/default/main.html'"
p174
sS'db'
p175
S'<DAL uri="sqlite://storage.sqlite">'
p176
sS'auth'
p177
S'<gluon.tools.Auth object>'
p178
sS'P'
S"<class 'gluon.html.P'>"
p179
sS'TFOOT'
p180
S"<class 'gluon.html.TFOOT'>"
p181
sS'XHTML'
p182
S"<class 'gluon.html.XHTML'>"
p183
sS'ON'
p184
S'True'
p185
sS'OL'
p186
S"<class 'gluon.html.OL'>"
p187
sS'TEXTAREA'
p188
S"<class 'gluon.html.TEXTAREA'>"
p189
sS'MENU'
p190
S"<class 'gluon.html.MENU'>"
p191
sS'IS_IMAGE'
p192
S"<class 'gluon.validators.IS_IMAGE'>"
p193
sS'EM'
p194
S"<class 'gluon.html.EM'>"
p195
sS'CODE'
p196
S"<class 'gluon.html.CODE'>"
p197
sS'HTTP'
p198
S"<class 'gluon.http.HTTP'>"
p199
sS'HR'
p200
S"<class 'gluon.html.HR'>"
p201
sS'IS_DATETIME'
p202
S"<class 'gluon.validators.IS_DATETIME'>"
p203
sS'STYLE'
p204
S"<class 'gluon.html.STYLE'>"
p205
sS'LABEL'
p206
S"<class 'gluon.html.LABEL'>"
p207
sS'CLEANUP'
p208
S"<class 'gluon.validators.CLEANUP'>"
p209
sS'plugins'
p210
S'<gluon.tools.PluginManager object>'
p211
sS'SELECT'
p212
S"<class 'gluon.html.SELECT'>"
p213
sS'use_janrain'
p214
S'<function use_janrain>'
p215
sS'CENTER'
p216
S"<class 'gluon.html.CENTER'>"
p217
sS'prettydate'
p218
S'<function prettydate>'
p219
sS'Crud'
p220
S"<class 'gluon.tools.Crud'>"
p221
sS'Auth'
p222
S"<class 'gluon.tools.Auth'>"
p223
sS'DEVELOPMENT_MENU'
p224
g185
sS'__builtins__'
p225
S"{'ArithmeticError': <type 'exceptions.ArithmeticError'>, 'AssertionError': <type 'exceptions.AssertionError'>, 'AttributeError': <type 'exceptions.AttributeError'>, 'BaseException': <type 'exceptions.BaseException'>, 'BufferError': <type 'exceptions.BufferError'>, 'BytesWarning': <type 'exceptions.BytesWarning'>, 'DeprecationWarning': <type 'exceptions.DeprecationWarning'>, 'EOFError': <type 'exceptions.EOFError'>, 'Ellipsis': Ellipsis, 'EnvironmentError': <type 'exceptions.EnvironmentError'>, ...}"
p226
sS'HTML'
p227
S"<class 'gluon.html.HTML'>"
p228
sS'SQLFORM'
p229
S"<class 'gluon.sqlhtml.SQLFORM'>"
p230
sS'LOAD'
p231
S'<function LOAD>'
p232
sS'redirect'
p233
S'<function redirect>'
p234
sS'FIELDSET'
p235
S"<class 'gluon.html.FIELDSET'>"
p236
sS'IS_EQUAL_TO'
p237
S"<class 'gluon.validators.IS_EQUAL_TO'>"
p238
sS'embed64'
p239
S'<function embed64>'
p240
sS'IS_LIST_OF'
p241
S"<class 'gluon.validators.IS_LIST_OF'>"
p242
sS'INPUT'
p243
S"<class 'gluon.html.INPUT'>"
p244
sS'EMBED'
p245
S"<class 'gluon.html.EMBED'>"
p246
sS'_'
S'<function _>'
p247
sS'H2'
p248
S"<class 'gluon.html.H2'>"
p249
sS'H3'
p250
S"<class 'gluon.html.H3'>"
p251
sS'BUTTON'
p252
S"<class 'gluon.html.BUTTON'>"
p253
sS'H1'
p254
S"<class 'gluon.html.H1'>"
p255
sS'H6'
p256
S"<class 'gluon.html.H6'>"
p257
sS'H4'
p258
S"<class 'gluon.html.H4'>"
p259
sS'H5'
p260
S"<class 'gluon.html.H5'>"
p261
sS'UL'
p262
S"<class 'gluon.html.UL'>"
p263
sS'IS_UPPER'
p264
S"<class 'gluon.validators.IS_UPPER'>"
p265
sS'xmlescape'
p266
S'<function xmlescape>'
p267
sS'IS_TIME'
p268
S"<class 'gluon.validators.IS_TIME'>"
p269
sS'OPTION'
p270
S"<class 'gluon.html.OPTION'>"
p271
sS'TITLE'
p272
S"<class 'gluon.html.TITLE'>"
p273
sS'CRYPT'
p274
S"<class 'gluon.validators.CRYPT'>"
p275
sS'IS_EMPTY_OR'
p276
S"<class 'gluon.validators.IS_EMPTY_OR'>"
p277
sS'MARKMIN'
p278
S"<class 'gluon.html.MARKMIN'>"
p279
sS'__name__'
p280
S"'__restricted__'"
p281
sS'STRONG'
p282
S"<class 'gluon.html.STRONG'>"
p283
sS'COL'
p284
S"<class 'gluon.html.COL'>"
p285
sS'service'
p286
S'<gluon.tools.Service object>'
p287
sS'SCRIPT'
p288
S"<class 'gluon.html.SCRIPT'>"
p289
sS'is_mobile'
p290
g150
sS'TABLE'
p291
S"<class 'gluon.html.TABLE'>"
p292
sS'IS_IPV4'
p293
S"<class 'gluon.validators.IS_IPV4'>"
p294
sS'IS_LENGTH'
p295
S"<class 'gluon.validators.IS_LENGTH'>"
p296
sS'IS_IPV6'
p297
S"<class 'gluon.validators.IS_IPV6'>"
p298
sS'XML'
p299
S"<class 'gluon.html.XML'>"
p300
sS'B'
S"<class 'gluon.html.B'>"
p301
sS'IMG'
p302
S"<class 'gluon.html.IMG'>"
p303
sS'SQLTABLE'
p304
S"<class 'gluon.sqlhtml.SQLTABLE'>"
p305
sS'IS_MATCH'
p306
S"<class 'gluon.validators.IS_MATCH'>"
p307
sS'IS_ALPHANUMERIC'
p308
S"<class 'gluon.validators.IS_ALPHANUMERIC'>"
p309
sS'SPAN'
p310
S"<class 'gluon.html.SPAN'>"
p311
sS'IS_JSON'
p312
S"<class 'gluon.validators.IS_JSON'>"
p313
sS'IS_IPADDRESS'
p314
S"<class 'gluon.validators.IS_IPADDRESS'>"
p315
sS'IS_SLUG'
p316
S"<class 'gluon.validators.IS_SLUG'>"
p317
sS'BEAUTIFY'
p318
S"<class 'gluon.html.BEAUTIFY'>"
p319
sS'META'
p320
S"<class 'gluon.html.META'>"
p321
sS'IS_DATE'
p322
S"<class 'gluon.validators.IS_DATE'>"
p323
sS'IS_EMAIL'
p324
S"<class 'gluon.validators.IS_EMAIL'>"
p325
sS'IS_NOT_EMPTY'
p326
S"<class 'gluon.validators.IS_NOT_EMPTY'>"
p327
sS'IS_FLOAT_IN_RANGE'
p328
S"<class 'gluon.validators.IS_FLOAT_IN_RANGE'>"
p329
sS'TBODY'
p330
S"<class 'gluon.html.TBODY'>"
p331
sS'CAT'
p332
S"<class 'gluon.html.CAT'>"
p333
sS'Field'
p334
S"<class 'gluon.dal.Field'>"
p335
sS'IS_LIST_OF_EMAILS'
p336
S"<class 'gluon.validators.IS_LIST_OF_EMAILS'>"
p337
sS'middle_columns'
p338
S"'span12'"
p339
sS'DIV'
p340
S"<class 'gluon.html.DIV'>"
p341
sS'LEGEND'
p342
S"<class 'gluon.html.LEGEND'>"
p343
sS'COLGROUP'
p344
S"<class 'gluon.html.COLGROUP'>"
p345
sS'DAL'
p346
S"<class 'gluon.dal.DAL'>"
p347
sS'TT'
p348
S"<class 'gluon.html.TT'>"
p349
sS'TR'
p350
S"<class 'gluon.html.TR'>"
p351
sS'LI'
p352
S"<class 'gluon.html.LI'>"
p353
sS'right_sidebar_enabled'
p354
g150
sS'TH'
p355
S"<class 'gluon.html.TH'>"
p356
sS'TD'
p357
S"<class 'gluon.html.TD'>"
p358
sS'PluginManager'
p359
S"<class 'gluon.tools.PluginManager'>"
p360
sS'IS_URL'
p361
S"<class 'gluon.validators.IS_URL'>"
p362
sS'A'
S"<class 'gluon.html.A'>"
p363
sS'HEAD'
p364
S"<class 'gluon.html.HEAD'>"
p365
sS'IS_DATETIME_IN_RANGE'
p366
S"<class 'gluon.validators.IS_DATETIME_IN_RANGE'>"
p367
sS'FORM'
p368
S"<class 'gluon.html.FORM'>"
p369
sS'I'
S"<class 'gluon.html.I'>"
p370
sS'crud'
p371
S'<gluon.tools.Crud object>'
p372
sS'IS_NOT_IN_DB'
p373
S"<class 'gluon.validators.IS_NOT_IN_DB'>"
p374
sg124
S"<Storage {'body': <cStringIO.StringO object at 0...da> at 0xaf7a72cc>, 'view': 'default/main.html'}>"
p375
sS'THEAD'
p376
S"<class 'gluon.html.THEAD'>"
p377
sS'ANY_OF'
p378
S"<class 'gluon.validators.ANY_OF'>"
p379
sS'IS_NULL_OR'
p380
S"<class 'gluon.validators.IS_EMPTY_OR'>"
p381
sg56
S"<Storage {'_vars': None, 'function': 'main', 'co...me/kushal/skynote/web2py/applications/notepad/'}>"
p382
sS'IS_EXPR'
p383
S"<class 'gluon.validators.IS_EXPR'>"
p384
sS'T'
S'<gluon.languages.translator object>'
p385
sS'IS_IN_SET'
p386
S"<class 'gluon.validators.IS_IN_SET'>"
p387
sS'IS_UPLOAD_FILENAME'
p388
S"<class 'gluon.validators.IS_UPLOAD_FILENAME'>"
p389
sS'IS_DECIMAL_IN_RANGE'
p390
S"<class 'gluon.validators.IS_DECIMAL_IN_RANGE'>"
p391
sssS'traceback'
p392
S'Traceback (most recent call last):\n  File "/home/kushal/skynote/web2py/gluon/restricted.py", line 217, in restricted\n    exec ccode in environment\n  File "/home/kushal/skynote/web2py/applications/notepad/views/default/main.html", line 62, in <module>\n    ans+=\'\\\\"\'+content.value+\'\\\\"\\\\,\'\nAttributeError: \'NoneType\' object has no attribute \'id\'\n'
p393
s.