(dp1
S'output'
p2
S"<type 'exceptions.AttributeError'> 'NoneType' object has no attribute 'id'"
p3
sS'layer'
p4
S'/home/kushal/skynote/web2py/applications/notepad_sid/views/default/create.html'
p5
sS'code'
p6
S'response.write(\'<!DOCTYPE html>\\n<html lang="en">\\n\', escape=False)\nresponse.files.append(URL(\'static\',\'css/create.css\'))\nresponse.write(\'\\n\', escape=False)\nresponse.write(\'<script type="text/javascript"><!--\\n    // These variables are used by the web2py_ajax_init function in web2py_ajax.js (which is loaded below).\\n    var w2p_ajax_confirm_message = "\', escape=False)\nresponse.write(T(\'Are you sure you want to delete this object?\'))\nresponse.write(\'";\\n    var w2p_ajax_disable_with_message = "\', escape=False)\nresponse.write(T(\'Working...\'))\nresponse.write(\'";\\n    var w2p_ajax_date_format = "\', escape=False)\nresponse.write(T(\'%Y-%m-%d\'))\nresponse.write(\'";\\n    var w2p_ajax_datetime_format = "\', escape=False)\nresponse.write(T(\'%Y-%m-%d %H:%M:%S\'))\nresponse.write(\'";\\n    var ajax_error_500 = \\\'\', escape=False)\nresponse.write(T.M(\'An error occured, please [[reload %s]] the page\') % URL(args=request.args, vars=request.get_vars))\nresponse.write("\'\\n    //--></script>\\n", escape=False)\nresponse.files.insert(0,URL(\'static\',\'js/jquery.js\'))\nresponse.files.insert(1,URL(\'static\',\'css/calendar.css\'))\nresponse.files.insert(2,URL(\'static\',\'js/calendar.js\'))\nresponse.files.insert(3,URL(\'static\',\'js/web2py.js\'))\nresponse.include_meta()\nresponse.include_files()\nresponse.write(\'\\n\', escape=False)\nresponse.write(\'\\n  <head>\\n\\n\\n  \\t<style>\\n/* make sidebar nav vertical */ \\n\\n\\n\\n#do_center{\\n\\ttext-align:center\\n}\\n\\n  \\t</style>\\n    <meta charset="utf-8">\\n    <meta http-equiv="X-UA-Compatible" content="IE=edge">\\n    <meta name="viewport" content="width=device-width, initial-scale=1.0">\\n    <meta name="description" content="">\\n    <meta name="author" content="">\\n\\t\\n    <title>Sky-Note:Create</title>\\n      <!--[if !HTML5]>\\n      <meta http-equiv="X-UA-Compatible" content="IE=edge\', escape=False)\nresponse.write(not request.is_local and \',chrome=1\' or \'\')\nresponse.write(\'">\\n  <![endif]-->\\n  <!-- www.phpied.com/conditional-comments-block-downloads/ -->\\n  <!-- Always force latest IE rendering engine\\n       (even in intranet) & Chrome Frame\\n       Remove this if you use the .htaccess -->\\n\\t   \\n  <meta charset="utf-8" />\\n\\n  <!-- http://dev.w3.org/html5/markup/meta.name.html -->\\n  <meta name="application-name" content="\', escape=False)\nresponse.write(request.application)\nresponse.write(\'" />\\n\\n  <!-- Speaking of Google, don\\\'t forget to set your site up:\\n       http://google.com/webmasters -->\\n  <meta name="google-site-verification" content="" />\\n\\n  <!--  Mobile Viewport Fix\\n        j.mp/mobileviewport & davidbcalhoun.com/2010/viewport-metatag\\n        device-width: Occupy full width of the screen in its current orientation\\n        initial-scale = 1.0 retains dimensions instead of zooming out if page height > device height\\n        user-scalable = yes allows the user to zoom in -->\\n  <meta name="viewport" content="width=device-width, initial-scale=1.0" />\\n\\n  <link rel="shortcut icon" href="\', escape=False)\nresponse.write(URL(\'static\',\'images/favicon.ico\'))\nresponse.write(\'" type="image/x-icon">\\n  <link rel="apple-touch-icon" href="\', escape=False)\nresponse.write(URL(\'static\',\'images/favicon.png\'))\nresponse.write(\'">\\n\\n  <!-- All JavaScript at the bottom, except for Modernizr which enables\\n       HTML5 elements & feature detects -->\\n  <script src="\', escape=False)\nresponse.write(URL(\'static\',\'js/modernizr.custom.js\'))\nresponse.write(\'"></script>\\n\\n  <!-- include stylesheets -->\\n  \', escape=False)\nresponse.files.insert(0,URL(\'static\',\'css/web2py.css\'))\nresponse.files.insert(1,URL(\'static\',\'css/bootstrap.min.css\'))\nresponse.files.insert(2,URL(\'static\',\'css/bootstrap-responsive.min.css\'))\nresponse.files.insert(3,URL(\'static\',\'css/web2py_bootstrap.css\'))\nresponse.write(\'\\n\\n  \', escape=False)\nresponse.write(\'<script type="text/javascript"><!--\\n    // These variables are used by the web2py_ajax_init function in web2py_ajax.js (which is loaded below).\\n    var w2p_ajax_confirm_message = "\', escape=False)\nresponse.write(T(\'Are you sure you want to delete this object?\'))\nresponse.write(\'";\\n    var w2p_ajax_disable_with_message = "\', escape=False)\nresponse.write(T(\'Working...\'))\nresponse.write(\'";\\n    var w2p_ajax_date_format = "\', escape=False)\nresponse.write(T(\'%Y-%m-%d\'))\nresponse.write(\'";\\n    var w2p_ajax_datetime_format = "\', escape=False)\nresponse.write(T(\'%Y-%m-%d %H:%M:%S\'))\nresponse.write(\'";\\n    var ajax_error_500 = \\\'\', escape=False)\nresponse.write(T.M(\'An error occured, please [[reload %s]] the page\') % URL(args=request.args, vars=request.get_vars))\nresponse.write("\'\\n    //--></script>\\n", escape=False)\nresponse.files.insert(0,URL(\'static\',\'js/jquery.js\'))\nresponse.files.insert(1,URL(\'static\',\'css/calendar.css\'))\nresponse.files.insert(2,URL(\'static\',\'js/calendar.js\'))\nresponse.files.insert(3,URL(\'static\',\'js/web2py.js\'))\nresponse.include_meta()\nresponse.include_files()\nresponse.write(\'\\n\', escape=False)\nresponse.write(\'\\n\\n  \', escape=False)\n# using sidebars need to know what sidebar you want to use\nleft_sidebar_enabled = globals().get(\'left_sidebar_enabled\',False)\nright_sidebar_enabled = globals().get(\'right_sidebar_enabled\',False)\nmiddle_columns = {0:\'span12\',1:\'span9\',2:\'span6\'}[\n(left_sidebar_enabled and 1 or 0)+(right_sidebar_enabled and 1 or 0)]\nresponse.write(\'\\n\\n  <!-- uncomment here to load jquery-ui\\n       <link rel="stylesheet" href="http://ajax.googleapis.com/ajax/libs/jqueryui/1.10.3/themes/ui-lightness/jquery-ui.css" type="text/css" media="all" />\\n       <script src="http://ajax.googleapis.com/ajax/libs/jqueryui/1.10.3/jquery-ui.min.js" type="text/javascript"></script>\\n       uncomment to load jquery-ui //-->\\n  <noscript><link href="\', escape=False)\nresponse.write(URL(\'static\', \'css/web2py_bootstrap_nojs.css\'))\nresponse.write(\'" rel="stylesheet" type="text/css" /></noscript>\\n  \', escape=False)\nresponse.write(\'\\n\\n    <!-- Bootstrap core CSS -->\\n    <link href="\', escape=False)\nresponse.write(URL(\'static\',\'css/bootstrap.css\'))\nresponse.write(\'" rel="stylesheet">\\n    <link href="\', escape=False)\nresponse.write(URL(\'static\',\'css/main.css\'))\nresponse.write(\'" rel="stylesheet">\\n    <link href="\', escape=False)\nresponse.write(URL(\'static\',\'css/font-awesome.min.css\'))\nresponse.write(\'" rel="stylesheet">\\n    <script src="\', escape=False)\nresponse.write(URL(\'static\',\'js/jquery.js\'))\nresponse.write(\'"></script>\\n    <script src="\', escape=False)\nresponse.write(URL(\'static\',\'js/chart.js\'))\nresponse.write(\'"></script>\\n\\n\\n    <!-- HTML5 shim and Respond.js IE8 support of HTML5 elements and media queries -->\\n    <!--[if lt IE 9]>\\n      <script src="https://oss.maxcdn.com/libs/html5shiv/3.7.0/html5shiv.js"></script>\\n      <script src="https://oss.maxcdn.com/libs/respond.js/1.3.0/respond.min.js"></script>\\n    <![endif]-->\\n  </head>\\n\\n  <body>\\n\\n\\n\\n  <div class="navbar navbar-default navbar-fixed-top"> <!--Correct-->\\n      <div class="container">\\n            \', escape=False)\nis_mobile=request.user_agent().is_mobile\nresponse.write(\'\\n        <div class="navbar-header">\\n          <button type="button" class="navbar-toggle" data-toggle="collapse" data-target=".navbar-collapse">\\n            <span class="icon-bar"></span>\\n            <span class="icon-bar"></span>\\n            <span class="icon-bar"></span>\\n          </button>\\n   <div id="TM">\\n           \', escape=False)\nx="Sky-Note"\nresponse.write(\'\\n    \', escape=False)\nresponse.write(x or \'\')\nresponse.write(\'<sup>TM </sup>\\n    </div> \\n     <a class="navbar-brand" href="#"><i class="fa fa-cloud"></i></a>\\n        </div>\\n        <div class="navbar-collapse collapse">\\n    <ul id="navbar" class="nav pull-right">\', escape=False)\nresponse.write(\'auth\' in globals() and auth.navbar(mode="dropdown") or \'\')\nresponse.write(\'</ul>     \\n       <!--This part does the login button-->\\n       <div class="\', escape=False)\nresponse.write(\'nav-collapse\' if is_mobile else \'nav\')\nresponse.write(\'">\\n          \', escape=False)\nif response.menu:\n    response.write(\'\\n          \', escape=False)\n    response.write(MENU(response.menu, _class=\'mobile-menu nav\' if is_mobile else \'nav\',mobile=is_mobile,li_class=\'dropdown\',ul_class=\'dropdown-menu\'))\n    response.write(\'\\n          \', escape=False)\n    pass\nresponse.write(\'        </div><!--/.nav-collapse -->\\n          \\n     </div><!--/.nav-collapse -->\\n      </div>\\n    </div>\\n\\n\\n\\n    <div id="skills">\\n    <div class="container">\\n      <div class="row centered">\\n        <h3>Create Note</h3>\\n      </div><!-- /row -->\\n    </div><!-- /container -->\\n  </div><!-- /skills -->\\n<style>\\n/* make sidebar nav vertical */ \\n@media (min-width: 768px) {\\n  .sidebar-nav .navbar .navbar-collapse {\\n    padding: 0;\\n    max-height: none;\\n  }\\n  .sidebar-nav .navbar ul {\\n    float: none;\\n    display: block;\\n  }\\n  .sidebar-nav .navbar li {\\n    float: none;\\n    display: block;\\n  }\\n  .sidebar-nav .navbar li a {\\n    padding-top: 12px;\\n    padding-bottom: 12px;\\n  }\\n}\\n</style>\\n  <div id="hello">\\n      <div class="container">\\n        <div class="row">\\n  <div class="col-md-3">\\n    <div class="sidebar-nav">\\n      <div class="navbar navbar-default" role="navigation">\\n        <div class="navbar-header">\\n          <button type="button" class="navbar-toggle" data-toggle="collapse" data-target=".sidebar-navbar-collapse">\\n            <span class="sr-only">Toggle navigation</span>\\n            <span class="icon-bar"></span>\\n            <span class="icon-bar"></span>\\n            <span class="icon-bar"></span>\\n          </button>\\n          <span class="visible-sm visible-xs navbar-brand">Sidebar menu</span>\\n        </div>\\n        <div class="navbar-collapse collapse sidebar-navbar-collapse">\\n          <ul class="nav navbar-nav">\\n          <li class="active"><a href="#"><span class="glyphicon glyphicon-cloud"></span>Sky-Note</a></li>\\n            <li><a href="view_all.html"> <span class="glyphicon glyphicon-file"></span> Notes</a></li>\\n            <li><a href="calendar.html"> <span class="glyphicon glyphicon-calendar"></span>Calender</a></li>\\n            <li><a href="main.html"><span class="glyphicon glyphicon-search"></span> Search </a></li>\\n            <li><a href="create.html"><span class="glyphicon glyphicon-pencil"></span> Create </a></li>\\n\\n          </ul>\\n        </div><!--/.nav-collapse -->\\n      </div>\\n    </div>\\n  </div>\\n  <div class="col-md-9">\\n            <div class="row">\\n        \', escape=False)\nresponse.write(\'\\n  \\n<link href=\\\'http://fonts.googleapis.com/css?family=The+Girl+Next+Door\\\' rel=\\\'stylesheet\\\' type=\\\'text/css\\\'>\\n   \\n<script type="text/javascript">\\n\\n//Format is --- {Title:[content,time]}\\ndocument.addEventListener("DOMContentLoaded", function() {\\ndocument.getElementById(\\\'Title\\\').focus()\\n});\\n\\n\\n/* Improve the check field for the text-box ..... choose a better method .......*/\\n\\nfunction check_empty()\\n{\\n   if(document.getElementById(\\\'Title\\\').value)\\n    return ;\\ndocument.getElementById(\\\'Title\\\').focus()\\nalert("please enter a title")\\n\\n}\\nfunction Restore(){\\n\\n/*To ensure that text-field is valid . */ \\n\\n  check_empty()\\n\\n\\nvar content = document.getElementById("main_content");\\nvar title=document.getElementById(\\\'Title\\\');\\nvar doc_title=localStorage.getItem("Title");\\nvar ans=localStorage.getItem(\', escape=False)\nresponse.write(auth.user.id)\nresponse.write(\')\\n\\n \\nif (localStorage.getItem("stored_content")) {\\n    content.value = localStorage.getItem("stored_content");\\n  }\\n \\n setInterval(function(){\\n    localStorage.setItem("stored_content", content.value);\\n }, 1000);\\n\\nif (localStorage.getItem("Title")) {\\n    title.value = localStorage.getItem("Title");\\n  }\\n \\n setInterval(function(){\\n\\n    localStorage.setItem("Title", title.value);\\n }, 1000);\\n\\n\\n\\n\\nif(ans==null)\\n  {\\n    \\n  ans=\\\'"\\\\\\\\{\\\'\\n  ans+=\\\'\\\\\\\\"\\\'+doc_title+\\\'\\\\\\\\"\\\\\\\\:\\\'\\n  ans+="\\\\\\\\["\\n  ans+=\\\'\\\\\\\\"\\\'+content.value+\\\'\\\\\\\\"\\\\\\\\,\\\'\\n  ans+=\\\'\\\\\\\\"\\\'+new Date()+\\\'\\\\\\\\"\\\'\\n  ans+="\\\\\\\\]"\\n  ans+=\\\'\\\\\\\\}"\\\'\\n\\n  //x1="\\\\{\\\\"as\\\\"\\\\:\\\\[\\\\"1qw\\\\"\\\\,\\\\"12\\\\"\\\\]\\\\}"\\n\\n/* trial version\\n  ans="\\\'{"\\n  ans+=\\\'"\\\'+doc_title+\\\'":\\\'\\n  ans+="\\\'["\\n  ans+=\\\'"\\\'+content.value+\\\'",\\\'\\n  ans+=\\\'"\\\'+new Date()+\\\'"\\\'\\n  ans+="]\\\'"\\n  ans+="}\\\'"\\n\\n*/\\n  }\\n\\nelse\\n  {ans=eval("("+ans+")")\\n   ans=eval("("+ans+")")\\n   ans[doc_title]=[content.value,new Date()]\\n   /*var z=ans[doc_title]\\n   alert(z)\\n   z[0]=content.value\\n   z[1]=new Date()\\n   ans[doc_title]=z\\n  *///conversion to proper string   \\n   var count=0\\n   var temp=ans\\n\\n//x1="\\\\{\\\\"as\\\\"\\\\:\\\\[\\\\"1qw\\\\"\\\\,\\\\"12\\\\"\\\\]\\\\}"\\n   ans=\\\'"\\\\\\\\{\\\'\\n   for(var i in temp)\\n      {    \\n        if(count!=0)\\n            ans+= "\\\\\\\\,"\\n        \\n         ans+= \\\'\\\\\\\\"\\\'+i+\\\'\\\\\\\\"\\\'+\\\'\\\\\\\\:\\\\\\\\[\\\'\\n         var counter=0\\n         for(var one in temp[i])\\n          {\\n           if(counter!=0)\\n            ans+= "\\\\\\\\," \\n            ans+= \\\'\\\\\\\\"\\\'+temp[i][one]+\\\'\\\\\\\\"\\\'\\n            counter+=1\\n          }\\n        count+=1\\n          ans+=\\\'\\\\\\\\]\\\'\\n        }\\n\\n    ans+=\\\'\\\\\\\\}"\\\'\\n}\\nlocalStorage.setItem(\', escape=False)\nresponse.write(auth.user.id)\nresponse.write(\',ans)\\n\\n}\\n//   Complete this Function Later when it Gets Triggered and How to use\\n\\n\\nfunction SaveTitle () {\\n\\nvar xmlhttp;\\n\\n      if (window.XMLHttpRequest)\\n        {\\n          xmlhttp=new XMLHttpRequest();\\n        }\\n      else\\n        {\\n          xmlhttp=new ActiveXObject("Microsoft.XMLHTTP");\\n        }\\n      xmlhttp.onreadystatechange=function()\\n        {\\n          if (xmlhttp.readyState==4 && xmlhttp.status==200)\\n            {\\n            global = xmlhttp.responseText;\\n            document.getElementById("response_2").innerHTML=xmlhttp.responseText;\\n            \\n            if(global == "False\\\\n"){\\n               alert("Title already exists!")\\n              }\\n           }\\n      }\\n      var title=document.getElementById(\\\'Title\\\');\\n      \\n      xmlhttp.open("GET","check_title?Title="+title.value,true);\\n      xmlhttp.send();\\n\\n      \\n\\nlocalStorage.setItem("Title",title.value); \\n\\n\\n}\\n\\n my_tag=\\\'None\\\'\\nvar my_title=\\\'None\\\'\\n\\n\\nfunction SaveTags () {  \\n\\n\\n\\n\\n my_tag=document.getElementById(\\\'Tags\\\').value;\\n my_title=localStorage.getItem("Title");\\n\\n}\\n\\n\\nfunction set_secret( the_head ) {\\n  var xmlhttp;\\nif (window.XMLHttpRequest)\\n  {xmlhttp=new XMLHttpRequest();\\n  }\\nelse\\n  {xmlhttp=new ActiveXObject("Microsoft.XMLHTTP");\\n  }\\ndocument.getElementById("")\\n\\nxmlhttp.open("GET","secret?head="+the_head,true);\\nxmlhttp.send();\\n\\n  }\\n\\n\\nfunction loadXMLDoc()\\n{\\nvar temp=localStorage.getItem(\', escape=False)\nresponse.write(auth.user.id)\nresponse.write(\')\\ntemp=eval("("+temp+")")\\ntemp=eval("("+temp+")")\\n\\nfor(var i in temp)\\n{ \\n\\nvar xmlhttp;\\nif (window.XMLHttpRequest)\\n  {xmlhttp=new XMLHttpRequest();\\n  }\\nelse\\n  {xmlhttp=new ActiveXObject("Microsoft.XMLHTTP");\\n  }\\nxmlhttp.onreadystatechange=function()\\n  {\\n  if (xmlhttp.readyState==4 && xmlhttp.status==200)\\n    {\\n    document.getElementById("response").innerHTML=xmlhttp.responseText;\\n    }\\n  }\\n var title=i\\n  var info=temp[i][0]\\n  var modified=temp[i][1];\\n\\nxmlhttp.open("GET","table_update?Title="+title+"&&Info="+info+"&&Modified="+modified,true);\\nxmlhttp.send();\\n}\\n\\n\\nlocalStorage.removeItem(\', escape=False)\nresponse.write(auth.user.id)\nresponse.write(\')  \\nlocalStorage.removeItem("Title")\\nlocalStorage.removeItem("stored_content")\\n\\nvar xmlhttp1;\\nif (window.XMLHttpRequest)\\n  {xmlhttp1=new XMLHttpRequest();\\n  }\\nelse\\n  {xmlhttp1=new ActiveXObject("Microsoft.XMLHTTP");\\n  }\\nxmlhttp1.onreadystatechange=function()\\n  {\\n  if (xmlhttp1.readyState==4 && xmlhttp1.status==200)\\n    {\\n    document.getElementById("response1").innerHTML=xmlhttp1.responseText;\\n    }\\n  }\\n\\n\\nxmlhttp1.open("GET","save_tags?Title="+my_title+"&&Tags="+my_tag,true);\\n xmlhttp1.send();\\n\\n\\n}\\n\\n</script>\\n   \\n\\n   <style>\\n\\n\\n   .btn{\\n          width: 8em;  height: 3em;\\n      border-radius: 4px;\\n      background-color: #6Eb86E;\\n    }\\n\\n   #buttons{\\nposition: absolute;\\nright:10px;\\nbottom: 130px;\\n\\n\\n   }\\n\\n     textarea {\\n       font-family: \\\'The Girl Next Door\\\', cursive;\\n       text-shadow: 4px 4px 4px #aaa;\\n       font-size: 28px;\\n     }\\n\\n   </style>\\n\\n\\n    <div id ="main_cover">\\n\\n    <input  id="Title" placeholder="Enter Title" />\\n    <button id="save_title" class="btn btn-info" onclick="SaveTitle()"> Save Title </button>\\n    \\n    <div id="response_2"></div>\\n    <textarea id="main_content" onclick="Restore()"></textarea>\\n    <div id="buttons">\\n          <button id="restore_content" class="btn btn-info" onclick="Restore()"> Restore </button>\\n          <br><br>\\n          <button id="sync" class="btn btn-info" onclick="loadXMLDoc()">Sync Now</button>\\n    </div>\\n    <!--div id="fbv-root"></div>\\n\\n    <fb:login-button show-faces="true" width="200" max-rows="1"></fb:login-button>\\n  <div class="fb-like" data-href="http://google.com" data-layout="standard" data-action="like" data-show-faces="true" data-share="true">\\n  </div-->\\n    </div>\\n\\n\\n     <div id="tag">\\n    <input placeholder="Enter Tags"   id="Tags"\\\\>\\n      <button id="save_tags" class="btn btn-info" onclick="SaveTags()" >Save Tags</button>\\n    </div>\\n\\n\\n<div id="response"></div>\\n<div id="response1"></div>\\n<script>\\n /* window.fbAsyncInit = function() {\\n  FB.init({\\n    appId      : 227235817483297,\\n    status     : true, // check login status\\n    cookie     : true, // enable cookies to allow the server to access the session\\n    xfbml      : true  // parse XFBML\\n  });\\n\\n  // Here we subscribe to the auth.authResponseChange JavaScript event. This event is fired\\n  // for any authentication related change, such as login, logout or session refresh. This means that\\n  // whenever someone who was previously logged out tries to log in again, the correct case below \\n  // will be handled. \\n  FB.Event.subscribe(\\\'auth.authResponseChange\\\', function(response) {\\n    // Here we specify what we do with the response anytime this event occurs. \\n    if (response.status === \\\'connected\\\') {\\n      // The response object is returned with a status field that lets the app know the current\\n      // login status of the person. In this case, we\\\'re handling the situation where they \\n      // have logged in to the app.\\n      window.open(\\\'http://www.yahoo.com\\\');\\n      testAPI();\\n    } else if (response.status === \\\'not_authorized\\\') {\\n      // In this case, the person is logged into Facebook, but not into the app, so we call\\n      // FB.login() to prompt them to do so. \\n      // In real-life usage, you wouldn\\\'t want to immediately prompt someone to login \\n      // like this, for two reasons:\\n      // (1) JavaScript created popup windows are blocked by most browsers unless they \\n      // result from direct interaction from people using the app (such as a mouse click)\\n      // (2) it is a bad experience to be continually prompted to login upon page load.\\n      FB.login();\\n    } else {\\n      // In this case, the person is not logged into Facebook, so we call the login() \\n      // function to prompt them to do so. Note that at this stage there is no indication\\n      // of whether they are logged into the app. If they aren\\\'t then they\\\'ll see the Login\\n      // dialog right after they log in to Facebook. \\n      // The same caveats as above apply to the FB.login() call here.\\n      FB.login();\\n    }\\n  });\\n  };\\n\\n  // Load the SDK asynchronously\\n  (function(d){\\n   var js, id = \\\'facebook-jssdk\\\', ref = d.getElementsByTagName(\\\'script\\\')[0];\\n   if (d.getElementById(id)) {return;}\\n   js = d.createElement(\\\'script\\\'); js.id = id; js.async = true;\\n   js.src = "//connect.facebook.net/en_US/all.js";\\n   ref.parentNode.insertBefore(js, ref);\\n  }(document));\\n\\n  // Here we run a very simple test of the Graph API after login is successful. \\n  // This testAPI() function is only called in those cases. \\n  function testAPI() {\\n    console.log(\\\'Welcome!  Fetching your information.... \\\');\\n    FB.api(\\\'/me\\\', function(response) {\\n      console.log(\\\'Good to see you, \\\' + response.name + \\\'.\\\');\\n    });\\n  }*/\\n</script>\\n\', escape=False)\nresponse.write(\'           \\n        </div><!-- /row -->\\n  </div>\\n</div> \\n\\n\\n\\n\\t\\t\\n\\n    <!-- Bootstrap core JavaScript\\n    ================================================== -->\\n    <!-- Placed at the end of the document so the pages load faster -->\\n    <script src="\', escape=False)\nresponse.write(URL(\'static\',\'js/bootstrap.min.js\'))\nresponse.write(\'"></script>\\n  <script src="\', escape=False)\nresponse.write(URL(\'static\',\'js/web2py_bootstrap.js\'))\nresponse.write(\'"></script>\\n  <!--[if lt IE 7 ]>\\n      <script src="\', escape=False)\nresponse.write(URL(\'static\',\'js/dd_belatedpng.js\'))\nresponse.write(\'"></script>\\n      <script> DD_belatedPNG.fix(\\\'img, .png_bg\\\'); //fix any <img> or .png_bg background-images </script>\\n      <![endif]-->\\n  \\n  \', escape=False)\nif response.google_analytics_id:\n    response.write(\'\\n  <script src="\', escape=False)\n    response.write(URL(\'static\',\'js/analytics.min.js\'))\n    response.write(\'"></script>\\n  <script type="text/javascript">\\n  analytics.initialize({\\n    \\\'Google Analytics\\\':{trackingId:\\\'\', escape=False)\n    response.write(response.google_analytics_id)\n    response.write("\'} \\n  });</script>\\n  ", escape=False)\n    pass\nresponse.write(\'\\n  <script src="\', escape=False)\nresponse.write(URL(\'static\',\'js/share.js\',vars=dict(static=URL(\'static\',\'images\'))))\nresponse.write(\'"></script>\\n    <script src="\', escape=False)\nresponse.write(URL(\'static\',\'js/bootstrap.js\'))\nresponse.write(\'"></script>\\n  </body>\\n</html>\\n\', escape=False)'
p7
sS'snapshot'
p8
(dp9
S'exception'
p10
(dp11
S'__hash__'
p12
S"<method-wrapper '__hash__' of exceptions.AttributeError object>"
p13
sS'__setattr__'
p14
S"<method-wrapper '__setattr__' of exceptions.AttributeError object>"
p15
sS'__reduce_ex__'
p16
S'<built-in method __reduce_ex__ of exceptions.AttributeError object>'
p17
sS'__getslice__'
p18
S"<method-wrapper '__getslice__' of exceptions.AttributeError object>"
p19
sS'__getitem__'
p20
S"<method-wrapper '__getitem__' of exceptions.AttributeError object>"
p21
sS'__setstate__'
p22
S'<built-in method __setstate__ of exceptions.AttributeError object>'
p23
sS'__reduce__'
p24
S'<built-in method __reduce__ of exceptions.AttributeError object>'
p25
sS'__str__'
p26
S"<method-wrapper '__str__' of exceptions.AttributeError object>"
p27
sS'__format__'
p28
S'<built-in method __format__ of exceptions.AttributeError object>'
p29
sS'__getattribute__'
p30
S"<method-wrapper '__getattribute__' of exceptions.AttributeError object>"
p31
sS'__class__'
p32
S"<type 'exceptions.AttributeError'>"
p33
sS'__unicode__'
p34
S'<built-in method __unicode__ of exceptions.AttributeError object>'
p35
sS'__delattr__'
p36
S"<method-wrapper '__delattr__' of exceptions.AttributeError object>"
p37
sS'__subclasshook__'
p38
S'<built-in method __subclasshook__ of type object>'
p39
sS'__repr__'
p40
S"<method-wrapper '__repr__' of exceptions.AttributeError object>"
p41
sS'args'
p42
S'("\'NoneType\' object has no attribute \'id\'",)'
p43
sS'__dict__'
p44
S'{}'
p45
sS'__sizeof__'
p46
S'<built-in method __sizeof__ of exceptions.AttributeError object>'
p47
sS'__doc__'
p48
S"'Attribute not found.'"
p49
sS'__init__'
p50
S"<method-wrapper '__init__' of exceptions.AttributeError object>"
p51
sS'__new__'
p52
S'<built-in method __new__ of type object>'
p53
ssS'evalue'
p54
S"'NoneType' object has no attribute 'id'"
p55
sS'request'
p56
cgluon.html
XML_unpickle
p57
(S's{N\x00\x00<div><table><tr><td style="font-weight:bold;vertical-align:top;">ajax</td><td style="vertical-align:top;">:</td><td><div>False</div></td></tr><tr><td style="font-weight:bold;vertical-align:top;">application</td><td style="vertical-align:top;">:</td><td><div>notepad_sid</div></td></tr><tr><td style="font-weight:bold;vertical-align:top;">args</td><td style="vertical-align:top;">:</td><td><div><table></table></div></td></tr><tr><td style="font-weight:bold;vertical-align:top;">cid</td><td style="vertical-align:top;">:</td><td><div>None</div></td></tr><tr><td style="font-weight:bold;vertical-align:top;">client</td><td style="vertical-align:top;">:</td><td><div>127.0.0.1</div></td></tr><tr><td style="font-weight:bold;vertical-align:top;">controller</td><td style="vertical-align:top;">:</td><td><div>default</div></td></tr><tr><td style="font-weight:bold;vertical-align:top;">cookies</td><td style="vertical-align:top;">:</td><td><div><table><tr><td style="font-weight:bold;vertical-align:top;">session_id_notepad_sid</td><td style="vertical-align:top;">:</td><td><div>127.0.0.1-7281aa81-26e9-4f64-9947-863781b09a32<table><tr><td style="font-weight:bold;vertical-align:top;">comment</td><td style="vertical-align:top;">:</td><td><div></div></td></tr><tr><td style="font-weight:bold;vertical-align:top;">domain</td><td style="vertical-align:top;">:</td><td><div></div></td></tr><tr><td style="font-weight:bold;vertical-align:top;">expires</td><td style="vertical-align:top;">:</td><td><div></div></td></tr><tr><td style="font-weight:bold;vertical-align:top;">httponly</td><td style="vertical-align:top;">:</td><td><div></div></td></tr><tr><td style="font-weight:bold;vertical-align:top;">max-age</td><td style="vertical-align:top;">:</td><td><div></div></td></tr><tr><td style="font-weight:bold;vertical-align:top;">path</td><td style="vertical-align:top;">:</td><td><div></div></td></tr><tr><td style="font-weight:bold;vertical-align:top;">secure</td><td style="vertical-align:top;">:</td><td><div></div></td></tr><tr><td style="font-weight:bold;vertical-align:top;">version</td><td style="vertical-align:top;">:</td><td><div></div></td></tr></table></div></td></tr></table></div></td></tr><tr><td style="font-weight:bold;vertical-align:top;">env</td><td style="vertical-align:top;">:</td><td><div><table><tr><td style="font-weight:bold;vertical-align:top;">HTTP_ACCEPT</td><td style="vertical-align:top;">:</td><td><div>text/html,application/xhtml+xml,application/xml;q=0.9,image/webp,*/*;q=0.8</div></td></tr><tr><td style="font-weight:bold;vertical-align:top;">HTTP_ACCEPT_ENCODING</td><td style="vertical-align:top;">:</td><td><div>gzip,deflate,sdch</div></td></tr><tr><td style="font-weight:bold;vertical-align:top;">HTTP_ACCEPT_LANGUAGE</td><td style="vertical-align:top;">:</td><td><div>en-US,en;q=0.8</div></td></tr><tr><td style="font-weight:bold;vertical-align:top;">HTTP_CONNECTION</td><td style="vertical-align:top;">:</td><td><div>keep-alive</div></td></tr><tr><td style="font-weight:bold;vertical-align:top;">HTTP_COOKIE</td><td style="vertical-align:top;">:</td><td><div>session_id_notepad_sid=127.0.0.1-7281aa81-26e9-4f64-9947-863781b09a32</div></td></tr><tr><td style="font-weight:bold;vertical-align:top;">HTTP_HOST</td><td style="vertical-align:top;">:</td><td><div>127.0.0.1:8000</div></td></tr><tr><td style="font-weight:bold;vertical-align:top;">HTTP_USER_AGENT</td><td style="vertical-align:top;">:</td><td><div>Mozilla/5.0 (X11; Linux i686) AppleWebKit/537.36 (KHTML, like Gecko) Chrome/33.0.1750.117 Safari/537.36</div></td></tr><tr><td style="font-weight:bold;vertical-align:top;">PATH_INFO</td><td style="vertical-align:top;">:</td><td><div>/notepad_sid/default/create.html</div></td></tr><tr><td style="font-weight:bold;vertical-align:top;">QUERY_STRING</td><td style="vertical-align:top;">:</td><td><div></div></td></tr><tr><td style="font-weight:bold;vertical-align:top;">REMOTE_ADDR</td><td style="vertical-align:top;">:</td><td><div>127.0.0.1</div></td></tr><tr><td style="font-weight:bold;vertical-align:top;">REMOTE_PORT</td><td style="vertical-align:top;">:</td><td><div>60982</div></td></tr><tr><td style="font-weight:bold;vertical-align:top;">REQUEST_METHOD</td><td style="vertical-align:top;">:</td><td><div>GET</div></td></tr><tr><td style="font-weight:bold;vertical-align:top;">SCRIPT_NAME</td><td style="vertical-align:top;">:</td><td><div></div></td></tr><tr><td style="font-weight:bold;vertical-align:top;">SERVER_NAME</td><td style="vertical-align:top;">:</td><td><div>kushal-Inspiron-3521</div></td></tr><tr><td style="font-weight:bold;vertical-align:top;">SERVER_PORT</td><td style="vertical-align:top;">:</td><td><div>8000</div></td></tr><tr><td style="font-weight:bold;vertical-align:top;">SERVER_PROTOCOL</td><td style="vertical-align:top;">:</td><td><div>HTTP/1.1</div></td></tr><tr><td style="font-weight:bold;vertical-align:top;">SERVER_SOFTWARE</td><td style="vertical-align:top;">:</td><td><div>Rocket 1.2.6</div></td></tr><tr><td style="font-weight:bold;vertical-align:top;">app_folders</td><td style="vertical-align:top;">:</td><td><div>set([&#x27;/home/kushal/skynote/web2py/applications/notepad_sid/&#x27;, &#x27;/home/kushal/skynote/web2py/applications/admin/&#x27;, &#x27;/home/kushal/skynote/web2py/applications/notepad/&#x27;])</div></td></tr><tr><td style="font-weight:bold;vertical-align:top;">applications_parent</td><td style="vertical-align:top;">:</td><td><div>/home/kushal/skynote/web2py</div></td></tr><tr><td style="font-weight:bold;vertical-align:top;">cmd_args</td><td style="vertical-align:top;">:</td><td><div><table></table></div></td></tr><tr><td style="font-weight:bold;vertical-align:top;">cmd_options</td><td style="vertical-align:top;">:</td><td><div>&lt;Values at 0xa4fd8ec: {&#x27;verbose&#x27;: False, &#x27;ip&#x27;: &#x27;127.0.0.1&#x27;, &#x27;debuglevel&#x27;: 30, &#x27;with_scheduler&#x27;: False, &#x27;ips&#x27;: [&#x27;127.0.1.1&#x27;], &#x27;shutdown_timeout&#x27;: 5, &#x27;taskbar&#x27;: False, &#x27;with_coverage&#x27;: False, &#x27;port&#x27;: 8000, &#x27;maxthreads&#x27;: None, &#x27;softcron&#x27;: False, &#x27;server_name&#x27;: &#x27;kushal-Inspiron-3521&#x27;, &#x27;bpython&#x27;: False, &#x27;nogui&#x27;: True, &#x27;pid_filename&#x27;: &#x27;httpserver.pid&#x27;, &#x27;extcron&#x27;: False, &#x27;runcron&#x27;: False, &#x27;run_system_tests&#x27;: False, &#x27;test&#x27;: None, &#x27;folder&#x27;: &#x27;/home/kushal/skynote/web2py&#x27;, &#x27;config&#x27;: &#x27;&#x27;, &#x27;minthreads&#x27;: None, &#x27;shell&#x27;: None, &#x27;run&#x27;: &#x27;&#x27;, &#x27;log_filename&#x27;: &#x27;httpserver.log&#x27;, &#x27;profiler_dir&#x27;: None, &#x27;args&#x27;: [&#x27;&#x27;], &#x27;socket_timeout&#x27;: 5, &#x27;ssl_ca_certificate&#x27;: None, &#x27;scheduler&#x27;: None, &#x27;interfaces&#x27;: None, &#x27;ssl_private_key&#x27;: &#x27;&#x27;, &#x27;scheduler_groups&#x27;: None, &#x27;password&#x27;: &#x27;1&#x27;, &#x27;request_queue_size&#x27;: 5, &#x27;ssl_certificate&#x27;: &#x27;&#x27;, &#x27;cronjob&#x27;: False, &#x27;numthreads&#x27;: None, &#x27;quiet&#x27;: False, &#x27;import_models&#x27;: False, &#x27;timeout&#x27;: 10, &#x27;plain&#x27;: False, &#x27;nobanner&#x27;: False}&gt;</div></td></tr><tr><td style="font-weight:bold;vertical-align:top;">db_sessions</td><td style="vertical-align:top;">:</td><td><div>set([])</div></td></tr><tr><td style="font-weight:bold;vertical-align:top;">debugging</td><td style="vertical-align:top;">:</td><td><div>False</div></td></tr><tr><td style="font-weight:bold;vertical-align:top;">gluon_parent</td><td style="vertical-align:top;">:</td><td><div>/home/kushal/skynote/web2py</div></td></tr><tr><td style="font-weight:bold;vertical-align:top;">http_accept</td><td style="vertical-align:top;">:</td><td><div>text/html,application/xhtml+xml,application/xml;q=0.9,image/webp,*/*;q=0.8</div></td></tr><tr><td style="font-weight:bold;vertical-align:top;">http_accept_encoding</td><td style="vertical-align:top;">:</td><td><div>gzip,deflate,sdch</div></td></tr><tr><td style="font-weight:bold;vertical-align:top;">http_accept_language</td><td style="vertical-align:top;">:</td><td><div>en-US,en;q=0.8</div></td></tr><tr><td style="font-weight:bold;vertical-align:top;">http_connection</td><td style="vertical-align:top;">:</td><td><div>keep-alive</div></td></tr><tr><td style="font-weight:bold;vertical-align:top;">http_cookie</td><td style="vertical-align:top;">:</td><td><div>session_id_notepad_sid=127.0.0.1-7281aa81-26e9-4f64-9947-863781b09a32</div></td></tr><tr><td style="font-weight:bold;vertical-align:top;">http_host</td><td style="vertical-align:top;">:</td><td><div>127.0.0.1:8000</div></td></tr><tr><td style="font-weight:bold;vertical-align:top;">http_user_agent</td><td style="vertical-align:top;">:</td><td><div>Mozilla/5.0 (X11; Linux i686) AppleWebKit/537.36 (KHTML, like Gecko) Chrome/33.0.1750.117 Safari/537.36</div></td></tr><tr><td style="font-weight:bold;vertical-align:top;">is_jython</td><td style="vertical-align:top;">:</td><td><div>False</div></td></tr><tr><td style="font-weight:bold;vertical-align:top;">is_pypy</td><td style="vertical-align:top;">:</td><td><div>False</div></td></tr><tr><td style="font-weight:bold;vertical-align:top;">is_source</td><td style="vertical-align:top;">:</td><td><div>True</div></td></tr><tr><td style="font-weight:bold;vertical-align:top;">local_hosts</td><td style="vertical-align:top;">:</td><td><div><table><tr><td><div>::1</div></td></tr><tr><td><div>127.0.1.1</div></td></tr><tr><td><div>::ffff:127.0.0.1</div></td></tr><tr><td><div>127.0.0.1</div></td></tr><tr><td><div>kushal-Inspiron-3521</div></td></tr></table></div></td></tr><tr><td style="font-weight:bold;vertical-align:top;">path_info</td><td style="vertical-align:top;">:</td><td><div>/notepad_sid/default/create.html</div></td></tr><tr><td style="font-weight:bold;vertical-align:top;">query_string</td><td style="vertical-align:top;">:</td><td><div></div></td></tr><tr><td style="font-weight:bold;vertical-align:top;">remote_addr</td><td style="vertical-align:top;">:</td><td><div>127.0.0.1</div></td></tr><tr><td style="font-weight:bold;vertical-align:top;">remote_port</td><td style="vertical-align:top;">:</td><td><div>60982</div></td></tr><tr><td style="font-weight:bold;vertical-align:top;">request_method</td><td style="vertical-align:top;">:</td><td><div>GET</div></td></tr><tr><td style="font-weight:bold;vertical-align:top;">request_uri</td><td style="vertical-align:top;">:</td><td><div>/notepad_sid/default/create.html</div></td></tr><tr><td style="font-weight:bold;vertical-align:top;">script_name</td><td style="vertical-align:top;">:</td><td><div></div></td></tr><tr><td style="font-weight:bold;vertical-align:top;">server_name</td><td style="vertical-align:top;">:</td><td><div>kushal-Inspiron-3521</div></td></tr><tr><td style="font-weight:bold;vertical-align:top;">server_port</td><td style="vertical-align:top;">:</td><td><div>8000</div></td></tr><tr><td style="font-weight:bold;vertical-align:top;">server_protocol</td><td style="vertical-align:top;">:</td><td><div>HTTP/1.1</div></td></tr><tr><td style="font-weight:bold;vertical-align:top;">server_software</td><td style="vertical-align:top;">:</td><td><div>Rocket 1.2.6</div></td></tr><tr><td style="font-weight:bold;vertical-align:top;">web2py_path</td><td style="vertical-align:top;">:</td><td><div>/home/kushal/skynote/web2py</div></td></tr><tr><td style="font-weight:bold;vertical-align:top;">web2py_version</td><td style="vertical-align:top;">:</td><td><div>2.9.4-stable+timestamp.2014.03.05.04.44.09</div></td></tr><tr><td style="font-weight:bold;vertical-align:top;">wsgi.errors</td><td style="vertical-align:top;">:</td><td><div>&lt;open file &#x27;&lt;stderr&gt;&#x27;, mode &#x27;w&#x27; at 0xb72e40d0&gt;</div></td></tr><tr><td style="font-weight:bold;vertical-align:top;">wsgi.file_wrapper</td><td style="vertical-align:top;">:</td><td><div>&lt;class wsgiref.util.FileWrapper at 0xa4c911c&gt;</div></td></tr><tr><td style="font-weight:bold;vertical-align:top;">wsgi.input</td><td style="vertical-align:top;">:</td><td><div>&lt;socket._fileobject object at 0xa67e76c&gt;</div></td></tr><tr><td style="font-weight:bold;vertical-align:top;">wsgi.multiprocess</td><td style="vertical-align:top;">:</td><td><div>False</div></td></tr><tr><td style="font-weight:bold;vertical-align:top;">wsgi.multithread</td><td style="vertical-align:top;">:</td><td><div>True</div></td></tr><tr><td style="font-weight:bold;vertical-align:top;">wsgi.run_once</td><td style="vertical-align:top;">:</td><td><div>False</div></td></tr><tr><td style="font-weight:bold;vertical-align:top;">wsgi.url_scheme</td><td style="vertical-align:top;">:</td><td><div>http</div></td></tr><tr><td style="font-weight:bold;vertical-align:top;">wsgi.version</td><td style="vertical-align:top;">:</td><td><div><table><tr><td><div>1</div></td></tr><tr><td><div>0</div></td></tr></table></div></td></tr><tr><td style="font-weight:bold;vertical-align:top;">wsgi_errors</td><td style="vertical-align:top;">:</td><td><div>&lt;open file &#x27;&lt;stderr&gt;&#x27;, mode &#x27;w&#x27; at 0xb72e40d0&gt;</div></td></tr><tr><td style="font-weight:bold;vertical-align:top;">wsgi_file_wrapper</td><td style="vertical-align:top;">:</td><td><div>&lt;class wsgiref.util.FileWrapper at 0xa4c911c&gt;</div></td></tr><tr><td style="font-weight:bold;vertical-align:top;">wsgi_input</td><td style="vertical-align:top;">:</td><td><div>&lt;socket._fileobject object at 0xa67e76c&gt;</div></td></tr><tr><td style="font-weight:bold;vertical-align:top;">wsgi_multiprocess</td><td style="vertical-align:top;">:</td><td><div>False</div></td></tr><tr><td style="font-weight:bold;vertical-align:top;">wsgi_multithread</td><td style="vertical-align:top;">:</td><td><div>True</div></td></tr><tr><td style="font-weight:bold;vertical-align:top;">wsgi_run_once</td><td style="vertical-align:top;">:</td><td><div>False</div></td></tr><tr><td style="font-weight:bold;vertical-align:top;">wsgi_url_scheme</td><td style="vertical-align:top;">:</td><td><div>http</div></td></tr><tr><td style="font-weight:bold;vertical-align:top;">wsgi_version</td><td style="vertical-align:top;">:</td><td><div><table><tr><td><div>1</div></td></tr><tr><td><div>0</div></td></tr></table></div></td></tr></table></div></td></tr><tr><td style="font-weight:bold;vertical-align:top;">extension</td><td style="vertical-align:top;">:</td><td><div>html</div></td></tr><tr><td style="font-weight:bold;vertical-align:top;">folder</td><td style="vertical-align:top;">:</td><td><div>/home/kushal/skynote/web2py/applications/notepad_sid/</div></td></tr><tr><td style="font-weight:bold;vertical-align:top;">function</td><td style="vertical-align:top;">:</td><td><div>create</div></td></tr><tr><td style="font-weight:bold;vertical-align:top;">global_settings</td><td style="vertical-align:top;">:</td><td><div><table><tr><td style="font-weight:bold;vertical-align:top;">app_folders</td><td style="vertical-align:top;">:</td><td><div>set([&#x27;/home/kushal/skynote/web2py/applications/notepad_sid/&#x27;, &#x27;/home/kushal/skynote/web2py/applications/admin/&#x27;, &#x27;/home/kushal/skynote/web2py/applications/notepad/&#x27;])</div></td></tr><tr><td style="font-weight:bold;vertical-align:top;">applications_parent</td><td style="vertical-align:top;">:</td><td><div>/home/kushal/skynote/web2py</div></td></tr><tr><td style="font-weight:bold;vertical-align:top;">cmd_args</td><td style="vertical-align:top;">:</td><td><div><table></table></div></td></tr><tr><td style="font-weight:bold;vertical-align:top;">cmd_options</td><td style="vertical-align:top;">:</td><td><div>&lt;Values at 0xa4fd8ec: {&#x27;verbose&#x27;: False, &#x27;ip&#x27;: &#x27;127.0.0.1&#x27;, &#x27;debuglevel&#x27;: 30, &#x27;with_scheduler&#x27;: False, &#x27;ips&#x27;: [&#x27;127.0.1.1&#x27;], &#x27;shutdown_timeout&#x27;: 5, &#x27;taskbar&#x27;: False, &#x27;with_coverage&#x27;: False, &#x27;port&#x27;: 8000, &#x27;maxthreads&#x27;: None, &#x27;softcron&#x27;: False, &#x27;server_name&#x27;: &#x27;kushal-Inspiron-3521&#x27;, &#x27;bpython&#x27;: False, &#x27;nogui&#x27;: True, &#x27;pid_filename&#x27;: &#x27;httpserver.pid&#x27;, &#x27;extcron&#x27;: False, &#x27;runcron&#x27;: False, &#x27;run_system_tests&#x27;: False, &#x27;test&#x27;: None, &#x27;folder&#x27;: &#x27;/home/kushal/skynote/web2py&#x27;, &#x27;config&#x27;: &#x27;&#x27;, &#x27;minthreads&#x27;: None, &#x27;shell&#x27;: None, &#x27;run&#x27;: &#x27;&#x27;, &#x27;log_filename&#x27;: &#x27;httpserver.log&#x27;, &#x27;profiler_dir&#x27;: None, &#x27;args&#x27;: [&#x27;&#x27;], &#x27;socket_timeout&#x27;: 5, &#x27;ssl_ca_certificate&#x27;: None, &#x27;scheduler&#x27;: None, &#x27;interfaces&#x27;: None, &#x27;ssl_private_key&#x27;: &#x27;&#x27;, &#x27;scheduler_groups&#x27;: None, &#x27;password&#x27;: &#x27;1&#x27;, &#x27;request_queue_size&#x27;: 5, &#x27;ssl_certificate&#x27;: &#x27;&#x27;, &#x27;cronjob&#x27;: False, &#x27;numthreads&#x27;: None, &#x27;quiet&#x27;: False, &#x27;import_models&#x27;: False, &#x27;timeout&#x27;: 10, &#x27;plain&#x27;: False, &#x27;nobanner&#x27;: False}&gt;</div></td></tr><tr><td style="font-weight:bold;vertical-align:top;">db_sessions</td><td style="vertical-align:top;">:</td><td><div>set([])</div></td></tr><tr><td style="font-weight:bold;vertical-align:top;">debugging</td><td style="vertical-align:top;">:</td><td><div>False</div></td></tr><tr><td style="font-weight:bold;vertical-align:top;">gluon_parent</td><td style="vertical-align:top;">:</td><td><div>/home/kushal/skynote/web2py</div></td></tr><tr><td style="font-weight:bold;vertical-align:top;">is_jython</td><td style="vertical-align:top;">:</td><td><div>False</div></td></tr><tr><td style="font-weight:bold;vertical-align:top;">is_pypy</td><td style="vertical-align:top;">:</td><td><div>False</div></td></tr><tr><td style="font-weight:bold;vertical-align:top;">is_source</td><td style="vertical-align:top;">:</td><td><div>True</div></td></tr><tr><td style="font-weight:bold;vertical-align:top;">local_hosts</td><td style="vertical-align:top;">:</td><td><div><table><tr><td><div>::1</div></td></tr><tr><td><div>127.0.1.1</div></td></tr><tr><td><div>::ffff:127.0.0.1</div></td></tr><tr><td><div>127.0.0.1</div></td></tr><tr><td><div>kushal-Inspiron-3521</div></td></tr></table></div></td></tr><tr><td style="font-weight:bold;vertical-align:top;">web2py_version</td><td style="vertical-align:top;">:</td><td><div>2.9.4-stable+timestamp.2014.03.05.04.44.09</div></td></tr></table></div></td></tr><tr><td style="font-weight:bold;vertical-align:top;">is_https</td><td style="vertical-align:top;">:</td><td><div>False</div></td></tr><tr><td style="font-weight:bold;vertical-align:top;">is_local</td><td style="vertical-align:top;">:</td><td><div>True</div></td></tr><tr><td style="font-weight:bold;vertical-align:top;">is_restful</td><td style="vertical-align:top;">:</td><td><div>False</div></td></tr><tr><td style="font-weight:bold;vertical-align:top;">now</td><td style="vertical-align:top;">:</td><td><div>datetime.datetime(2014, 4, 17, 16, 13, 2, 739290)</div></td></tr><tr><td style="font-weight:bold;vertical-align:top;">raw_args</td><td style="vertical-align:top;">:</td><td><div></div></td></tr><tr><td style="font-weight:bold;vertical-align:top;">raw_extension</td><td style="vertical-align:top;">:</td><td><div>html</div></td></tr><tr><td style="font-weight:bold;vertical-align:top;">url</td><td style="vertical-align:top;">:</td><td><div>/notepad_sid/default/create.html</div></td></tr><tr><td style="font-weight:bold;vertical-align:top;">utcnow</td><td style="vertical-align:top;">:</td><td><div>datetime.datetime(2014, 4, 17, 10, 43, 2, 739315)</div></td></tr><tr><td style="font-weight:bold;vertical-align:top;">uuid</td><td style="vertical-align:top;">:</td><td><div>notepad_sid/127.0.0.1.2014-04-17.16-13-02.d84c530d-f18b-4cc1-a610-419d268c1ce5</div></td></tr><tr><td style="font-weight:bold;vertical-align:top;">wsgi</td><td style="vertical-align:top;">:</td><td><div>&lt;gluon.main.LazyWSGI object at 0xafe0e24c&gt;</div></td></tr></table></div>'
tRp58
sS'frames'
p59
(lp60
(dp61
S'file'
p62
S'/home/kushal/skynote/web2py/gluon/restricted.py'
p63
sS'dump'
p64
(dp65
S'environment'
p66
S"{'A': <class 'gluon.html.A'>, 'ANY_OF': <class 'gluon.validators.ANY_OF'>, 'Auth': <class 'gluon.tools.Auth'>, 'B': <class 'gluon.html.B'>, 'BEAUTIFY': <class 'gluon.html.BEAUTIFY'>, 'BODY': <class 'gluon.html.BODY'>, 'BR': <class 'gluon.html.BR'>, 'BUTTON': <class 'gluon.html.BUTTON'>, 'CAT': <class 'gluon.html.CAT'>, 'CENTER': <class 'gluon.html.CENTER'>, ...}"
p67
sS'ccode'
p68
S'<code object <module> at 0xb5bc9cc8, file "/home...s/notepad_sid/views/default/create.html", line 1>'
p69
ssS'lnum'
p70
I217
sS'lines'
p71
(dp72
I212
S'    try:'
p73
sI213
S'        if isinstance(code, types.CodeType):'
p74
sI214
S'            ccode = code'
p75
sI215
S'        else:'
p76
sI216
S'            ccode = compile2(code, layer)'
p77
sI217
S'        exec ccode in environment'
p78
sI218
S'    except HTTP:'
p79
sI219
S'        raise'
p80
sI220
S'    except RestrictedError:'
p81
sI221
S'        # do not encapsulate (obfuscate) the original RestrictedError'
p82
ssS'call'
p83
S'(code=\'response.write(\\\'<!DOCTYPE html>\\\\n<html lang="en"..."></script>\\\\n  </body>\\\\n</html>\\\\n\\\', escape=False)\', environment={\'A\': <class \'gluon.html.A\'>, \'ANY_OF\': <class \'gluon.validators.ANY_OF\'>, \'Auth\': <class \'gluon.tools.Auth\'>, \'B\': <class \'gluon.html.B\'>, \'BEAUTIFY\': <class \'gluon.html.BEAUTIFY\'>, \'BODY\': <class \'gluon.html.BODY\'>, \'BR\': <class \'gluon.html.BR\'>, \'BUTTON\': <class \'gluon.html.BUTTON\'>, \'CAT\': <class \'gluon.html.CAT\'>, \'CENTER\': <class \'gluon.html.CENTER\'>, ...}, layer=\'/home/kushal/skynote/web2py/applications/notepad_sid/views/default/create.html\')'
p84
sS'func'
p85
S'restricted'
p86
sa(dp87
g62
S'/home/kushal/skynote/web2py/applications/notepad_sid/views/default/create.html'
p88
sg64
(dp89
S'x1'
p90
S'undefined'
p91
ssg70
I93
sg71
(dp92
I96
S'response.write(\',ans)\\n\\n}\\n//   Complete this Function Later when it Gets Triggered and How to use\\n\\n\\nfunction SaveTitle () {\\n\\nvar xmlhttp;\\n\\n      if (window.XMLHttpRequest)\\n        {\\n          xmlhttp=new XMLHttpRequest();\\n        }\\n      else\\n        {\\n          xmlhttp=new ActiveXObject("Microsoft.XMLHTTP");\\n        }\\n      xmlhttp.onreadystatechange=function()\\n        {\\n          if (xmlhttp.readyState==4 && xmlhttp.status==200)\\n            {\\n            global = xmlhttp.responseText;\\n            document.getElementById("response_2").innerHTML=xmlhttp.responseText;\\n            \\n            if(global == "False\\\\n"){\\n               alert("Title already exists!")\\n              }\\n           }\\n      }\\n      var title=document.getElementById(\\\'Title\\\');\\n      \\n      xmlhttp.open("GET","check_title?Title="+title.value,true);\\n      xmlhttp.send();\\n\\n      \\n\\nlocalStorage.setItem("Title",title.value); \\n\\n\\n}\\n\\n my_tag=\\\'None\\\'\\nvar my_title=\\\'None\\\'\\n\\n\\nfunction SaveTags () {  \\n\\n\\n\\n\\n my_tag=document.getElementById(\\\'Tags\\\').value;\\n my_title=localStorage.getItem("Title");\\n\\n}\\n\\n\\nfunction set_secret( the_head ) {\\n  var xmlhttp;\\nif (window.XMLHttpRequest)\\n  {xmlhttp=new XMLHttpRequest();\\n  }\\nelse\\n  {xmlhttp=new ActiveXObject("Microsoft.XMLHTTP");\\n  }\\ndocument.getElementById("")\\n\\nxmlhttp.open("GET","secret?head="+the_head,true);\\nxmlhttp.send();\\n\\n  }\\n\\n\\nfunction loadXMLDoc()\\n{\\nvar temp=localStorage.getItem(\', escape=False)'
p93
sI97
S'response.write(auth.user.id)'
p94
sI98
S'response.write(\')\\ntemp=eval("("+temp+")")\\ntemp=eval("("+temp+")")\\n\\nfor(var i in temp)\\n{ \\n\\nvar xmlhttp;\\nif (window.XMLHttpRequest)\\n  {xmlhttp=new XMLHttpRequest();\\n  }\\nelse\\n  {xmlhttp=new ActiveXObject("Microsoft.XMLHTTP");\\n  }\\nxmlhttp.onreadystatechange=function()\\n  {\\n  if (xmlhttp.readyState==4 && xmlhttp.status==200)\\n    {\\n    document.getElementById("response").innerHTML=xmlhttp.responseText;\\n    }\\n  }\\n var title=i\\n  var info=temp[i][0]\\n  var modified=temp[i][1];\\n\\nxmlhttp.open("GET","table_update?Title="+title+"&&Info="+info+"&&Modified="+modified,true);\\nxmlhttp.send();\\n}\\n\\n\\nlocalStorage.removeItem(\', escape=False)'
p95
sI99
S'response.write(auth.user.id)'
p96
sI100
S'response.write(\')  \\nlocalStorage.removeItem("Title")\\nlocalStorage.removeItem("stored_content")\\n\\nvar xmlhttp1;\\nif (window.XMLHttpRequest)\\n  {xmlhttp1=new XMLHttpRequest();\\n  }\\nelse\\n  {xmlhttp1=new ActiveXObject("Microsoft.XMLHTTP");\\n  }\\nxmlhttp1.onreadystatechange=function()\\n  {\\n  if (xmlhttp1.readyState==4 && xmlhttp1.status==200)\\n    {\\n    document.getElementById("response1").innerHTML=xmlhttp1.responseText;\\n    }\\n  }\\n\\n\\nxmlhttp1.open("GET","save_tags?Title="+my_title+"&&Tags="+my_tag,true);\\n xmlhttp1.send();\\n\\n\\n}\\n\\n</script>\\n   \\n\\n   <style>\\n\\n\\n   .btn{\\n          width: 8em;  height: 3em;\\n      border-radius: 4px;\\n      background-color: #6Eb86E;\\n    }\\n\\n   #buttons{\\nposition: absolute;\\nright:10px;\\nbottom: 130px;\\n\\n\\n   }\\n\\n     textarea {\\n       font-family: \\\'The Girl Next Door\\\', cursive;\\n       text-shadow: 4px 4px 4px #aaa;\\n       font-size: 28px;\\n     }\\n\\n   </style>\\n\\n\\n    <div id ="main_cover">\\n\\n    <input  id="Title" placeholder="Enter Title" />\\n    <button id="save_title" class="btn btn-info" onclick="SaveTitle()"> Save Title </button>\\n    \\n    <div id="response_2"></div>\\n    <textarea id="main_content" onclick="Restore()"></textarea>\\n    <div id="buttons">\\n          <button id="restore_content" class="btn btn-info" onclick="Restore()"> Restore </button>\\n          <br><br>\\n          <button id="sync" class="btn btn-info" onclick="loadXMLDoc()">Sync Now</button>\\n    </div>\\n    <!--div id="fbv-root"></div>\\n\\n    <fb:login-button show-faces="true" width="200" max-rows="1"></fb:login-button>\\n  <div class="fb-like" data-href="http://google.com" data-layout="standard" data-action="like" data-show-faces="true" data-share="true">\\n  </div-->\\n    </div>\\n\\n\\n     <div id="tag">\\n    <input placeholder="Enter Tags"   id="Tags"\\\\>\\n      <button id="save_tags" class="btn btn-info" onclick="SaveTags()" >Save Tags</button>\\n    </div>\\n\\n\\n<div id="response"></div>\\n<div id="response1"></div>\\n<script>\\n /* window.fbAsyncInit = function() {\\n  FB.init({\\n    appId      : 227235817483297,\\n    status     : true, // check login status\\n    cookie     : true, // enable cookies to allow the server to access the session\\n    xfbml      : true  // parse XFBML\\n  });\\n\\n  // Here we subscribe to the auth.authResponseChange JavaScript event. This event is fired\\n  // for any authentication related change, such as login, logout or session refresh. This means that\\n  // whenever someone who was previously logged out tries to log in again, the correct case below \\n  // will be handled. \\n  FB.Event.subscribe(\\\'auth.authResponseChange\\\', function(response) {\\n    // Here we specify what we do with the response anytime this event occurs. \\n    if (response.status === \\\'connected\\\') {\\n      // The response object is returned with a status field that lets the app know the current\\n      // login status of the person. In this case, we\\\'re handling the situation where they \\n      // have logged in to the app.\\n      window.open(\\\'http://www.yahoo.com\\\');\\n      testAPI();\\n    } else if (response.status === \\\'not_authorized\\\') {\\n      // In this case, the person is logged into Facebook, but not into the app, so we call\\n      // FB.login() to prompt them to do so. \\n      // In real-life usage, you wouldn\\\'t want to immediately prompt someone to login \\n      // like this, for two reasons:\\n      // (1) JavaScript created popup windows are blocked by most browsers unless they \\n      // result from direct interaction from people using the app (such as a mouse click)\\n      // (2) it is a bad experience to be continually prompted to login upon page load.\\n      FB.login();\\n    } else {\\n      // In this case, the person is not logged into Facebook, so we call the login() \\n      // function to prompt them to do so. Note that at this stage there is no indication\\n      // of whether they are logged into the app. If they aren\\\'t then they\\\'ll see the Login\\n      // dialog right after they log in to Facebook. \\n      // The same caveats as above apply to the FB.login() call here.\\n      FB.login();\\n    }\\n  });\\n  };\\n\\n  // Load the SDK asynchronously\\n  (function(d){\\n   var js, id = \\\'facebook-jssdk\\\', ref = d.getElementsByTagName(\\\'script\\\')[0];\\n   if (d.getElementById(id)) {return;}\\n   js = d.createElement(\\\'script\\\'); js.id = id; js.async = true;\\n   js.src = "//connect.facebook.net/en_US/all.js";\\n   ref.parentNode.insertBefore(js, ref);\\n  }(document));\\n\\n  // Here we run a very simple test of the Graph API after login is successful. \\n  // This testAPI() function is only called in those cases. \\n  function testAPI() {\\n    console.log(\\\'Welcome!  Fetching your information.... \\\');\\n    FB.api(\\\'/me\\\', function(response) {\\n      console.log(\\\'Good to see you, \\\' + response.name + \\\'.\\\');\\n    });\\n  }*/\\n</script>\\n\', escape=False)'
p97
sI101
S'response.write(\'           \\n        </div><!-- /row -->\\n  </div>\\n</div> \\n\\n\\n\\n\\t\\t\\n\\n    <!-- Bootstrap core JavaScript\\n    ================================================== -->\\n    <!-- Placed at the end of the document so the pages load faster -->\\n    <script src="\', escape=False)'
p98
sI102
S"response.write(URL('static','js/bootstrap.min.js'))"
p99
sI103
S'response.write(\'"></script>\\n  <script src="\', escape=False)'
p100
sI84
S"response.write('nav-collapse' if is_mobile else 'nav')"
p101
sI85
S'response.write(\'">\\n          \', escape=False)'
p102
sI86
S'if response.menu:'
p103
sI87
S"    response.write('\\n          ', escape=False)"
p104
sI88
S"    response.write(MENU(response.menu, _class='mobile-menu nav' if is_mobile else 'nav',mobile=is_mobile,li_class='dropdown',ul_class='dropdown-menu'))"
p105
sI89
S"    response.write('\\n          ', escape=False)"
p106
sI90
S'    pass'
p107
sI91
S'response.write(\'        </div><!--/.nav-collapse -->\\n          \\n     </div><!--/.nav-collapse -->\\n      </div>\\n    </div>\\n\\n\\n\\n    <div id="skills">\\n    <div class="container">\\n      <div class="row centered">\\n        <h3>Create Note</h3>\\n      </div><!-- /row -->\\n    </div><!-- /container -->\\n  </div><!-- /skills -->\\n<style>\\n/* make sidebar nav vertical */ \\n@media (min-width: 768px) {\\n  .sidebar-nav .navbar .navbar-collapse {\\n    padding: 0;\\n    max-height: none;\\n  }\\n  .sidebar-nav .navbar ul {\\n    float: none;\\n    display: block;\\n  }\\n  .sidebar-nav .navbar li {\\n    float: none;\\n    display: block;\\n  }\\n  .sidebar-nav .navbar li a {\\n    padding-top: 12px;\\n    padding-bottom: 12px;\\n  }\\n}\\n</style>\\n  <div id="hello">\\n      <div class="container">\\n        <div class="row">\\n  <div class="col-md-3">\\n    <div class="sidebar-nav">\\n      <div class="navbar navbar-default" role="navigation">\\n        <div class="navbar-header">\\n          <button type="button" class="navbar-toggle" data-toggle="collapse" data-target=".sidebar-navbar-collapse">\\n            <span class="sr-only">Toggle navigation</span>\\n            <span class="icon-bar"></span>\\n            <span class="icon-bar"></span>\\n            <span class="icon-bar"></span>\\n          </button>\\n          <span class="visible-sm visible-xs navbar-brand">Sidebar menu</span>\\n        </div>\\n        <div class="navbar-collapse collapse sidebar-navbar-collapse">\\n          <ul class="nav navbar-nav">\\n          <li class="active"><a href="#"><span class="glyphicon glyphicon-cloud"></span>Sky-Note</a></li>\\n            <li><a href="view_all.html"> <span class="glyphicon glyphicon-file"></span> Notes</a></li>\\n            <li><a href="calendar.html"> <span class="glyphicon glyphicon-calendar"></span>Calender</a></li>\\n            <li><a href="main.html"><span class="glyphicon glyphicon-search"></span> Search </a></li>\\n            <li><a href="create.html"><span class="glyphicon glyphicon-pencil"></span> Create </a></li>\\n\\n          </ul>\\n        </div><!--/.nav-collapse -->\\n      </div>\\n    </div>\\n  </div>\\n  <div class="col-md-9">\\n            <div class="row">\\n        \', escape=False)'
p108
sI92
S'response.write(\'\\n  \\n<link href=\\\'http://fonts.googleapis.com/css?family=The+Girl+Next+Door\\\' rel=\\\'stylesheet\\\' type=\\\'text/css\\\'>\\n   \\n<script type="text/javascript">\\n\\n//Format is --- {Title:[content,time]}\\ndocument.addEventListener("DOMContentLoaded", function() {\\ndocument.getElementById(\\\'Title\\\').focus()\\n});\\n\\n\\n/* Improve the check field for the text-box ..... choose a better method .......*/\\n\\nfunction check_empty()\\n{\\n   if(document.getElementById(\\\'Title\\\').value)\\n    return ;\\ndocument.getElementById(\\\'Title\\\').focus()\\nalert("please enter a title")\\n\\n}\\nfunction Restore(){\\n\\n/*To ensure that text-field is valid . */ \\n\\n  check_empty()\\n\\n\\nvar content = document.getElementById("main_content");\\nvar title=document.getElementById(\\\'Title\\\');\\nvar doc_title=localStorage.getItem("Title");\\nvar ans=localStorage.getItem(\', escape=False)'
p109
sI93
S'response.write(auth.user.id)'
p110
sI94
S'response.write(\')\\n\\n \\nif (localStorage.getItem("stored_content")) {\\n    content.value = localStorage.getItem("stored_content");\\n  }\\n \\n setInterval(function(){\\n    localStorage.setItem("stored_content", content.value);\\n }, 1000);\\n\\nif (localStorage.getItem("Title")) {\\n    title.value = localStorage.getItem("Title");\\n  }\\n \\n setInterval(function(){\\n\\n    localStorage.setItem("Title", title.value);\\n }, 1000);\\n\\n\\n\\n\\nif(ans==null)\\n  {\\n    \\n  ans=\\\'"\\\\\\\\{\\\'\\n  ans+=\\\'\\\\\\\\"\\\'+doc_title+\\\'\\\\\\\\"\\\\\\\\:\\\'\\n  ans+="\\\\\\\\["\\n  ans+=\\\'\\\\\\\\"\\\'+content.value+\\\'\\\\\\\\"\\\\\\\\,\\\'\\n  ans+=\\\'\\\\\\\\"\\\'+new Date()+\\\'\\\\\\\\"\\\'\\n  ans+="\\\\\\\\]"\\n  ans+=\\\'\\\\\\\\}"\\\'\\n\\n  //x1="\\\\{\\\\"as\\\\"\\\\:\\\\[\\\\"1qw\\\\"\\\\,\\\\"12\\\\"\\\\]\\\\}"\\n\\n/* trial version\\n  ans="\\\'{"\\n  ans+=\\\'"\\\'+doc_title+\\\'":\\\'\\n  ans+="\\\'["\\n  ans+=\\\'"\\\'+content.value+\\\'",\\\'\\n  ans+=\\\'"\\\'+new Date()+\\\'"\\\'\\n  ans+="]\\\'"\\n  ans+="}\\\'"\\n\\n*/\\n  }\\n\\nelse\\n  {ans=eval("("+ans+")")\\n   ans=eval("("+ans+")")\\n   ans[doc_title]=[content.value,new Date()]\\n   /*var z=ans[doc_title]\\n   alert(z)\\n   z[0]=content.value\\n   z[1]=new Date()\\n   ans[doc_title]=z\\n  *///conversion to proper string   \\n   var count=0\\n   var temp=ans\\n\\n//x1="\\\\{\\\\"as\\\\"\\\\:\\\\[\\\\"1qw\\\\"\\\\,\\\\"12\\\\"\\\\]\\\\}"\\n   ans=\\\'"\\\\\\\\{\\\'\\n   for(var i in temp)\\n      {    \\n        if(count!=0)\\n            ans+= "\\\\\\\\,"\\n        \\n         ans+= \\\'\\\\\\\\"\\\'+i+\\\'\\\\\\\\"\\\'+\\\'\\\\\\\\:\\\\\\\\[\\\'\\n         var counter=0\\n         for(var one in temp[i])\\n          {\\n           if(counter!=0)\\n            ans+= "\\\\\\\\," \\n            ans+= \\\'\\\\\\\\"\\\'+temp[i][one]+\\\'\\\\\\\\"\\\'\\n            counter+=1\\n          }\\n        count+=1\\n          ans+=\\\'\\\\\\\\]\\\'\\n        }\\n\\n    ans+=\\\'\\\\\\\\}"\\\'\\n}\\nlocalStorage.setItem(\', escape=False)'
p111
sI95
S'response.write(auth.user.id)'
p112
ssg83
S'()'
p113
sg85
S'<module>'
p114
sasS'pyver'
p115
S'Python 2.7.3: /usr/bin/python (prefix: /usr)'
p116
sS'session'
p117
g57
(S's\x1a\x00\x00\x00<div><table></table></div>'
tRp118
sS'etype'
p119
S"<type 'exceptions.AttributeError'>"
p120
sS'date'
p121
S'Thu Apr 17 16:13:03 2014'
p122
sS'response'
p123
g57
(S's\x9d \x00\x00<div><table><tr><td style="font-weight:bold;vertical-align:top;">body</td><td style="vertical-align:top;">:</td><td><div>&lt;cStringIO.StringO object at 0xa71dbe0&gt;</div></td></tr><tr><td style="font-weight:bold;vertical-align:top;">cookies</td><td style="vertical-align:top;">:</td><td><div><table><tr><td style="font-weight:bold;vertical-align:top;">session_id_notepad_sid</td><td style="vertical-align:top;">:</td><td><div>127.0.0.1-7281aa81-26e9-4f64-9947-863781b09a32<table><tr><td style="font-weight:bold;vertical-align:top;">comment</td><td style="vertical-align:top;">:</td><td><div></div></td></tr><tr><td style="font-weight:bold;vertical-align:top;">domain</td><td style="vertical-align:top;">:</td><td><div></div></td></tr><tr><td style="font-weight:bold;vertical-align:top;">expires</td><td style="vertical-align:top;">:</td><td><div></div></td></tr><tr><td style="font-weight:bold;vertical-align:top;">httponly</td><td style="vertical-align:top;">:</td><td><div></div></td></tr><tr><td style="font-weight:bold;vertical-align:top;">max-age</td><td style="vertical-align:top;">:</td><td><div></div></td></tr><tr><td style="font-weight:bold;vertical-align:top;">path</td><td style="vertical-align:top;">:</td><td><div>/</div></td></tr><tr><td style="font-weight:bold;vertical-align:top;">secure</td><td style="vertical-align:top;">:</td><td><div></div></td></tr><tr><td style="font-weight:bold;vertical-align:top;">version</td><td style="vertical-align:top;">:</td><td><div></div></td></tr></table></div></td></tr></table></div></td></tr><tr><td style="font-weight:bold;vertical-align:top;">delimiters</td><td style="vertical-align:top;">:</td><td><div><table><tr><td><div>{{</div></td></tr><tr><td><div>}}</div></td></tr></table></div></td></tr><tr><td style="font-weight:bold;vertical-align:top;">files</td><td style="vertical-align:top;">:</td><td><div><table><tr><td><div>/notepad_sid/static/js/jquery.js</div></td></tr><tr><td><div>/notepad_sid/static/css/calendar.css</div></td></tr><tr><td><div>/notepad_sid/static/js/calendar.js</div></td></tr><tr><td><div>/notepad_sid/static/js/web2py.js</div></td></tr><tr><td><div>/notepad_sid/static/css/web2py.css</div></td></tr><tr><td><div>/notepad_sid/static/css/bootstrap.min.css</div></td></tr><tr><td><div>/notepad_sid/static/css/bootstrap-responsive.min.css</div></td></tr><tr><td><div>/notepad_sid/static/css/web2py_bootstrap.css</div></td></tr><tr><td><div>/notepad_sid/static/js/jquery.js</div></td></tr><tr><td><div>/notepad_sid/static/css/calendar.css</div></td></tr><tr><td><div>/notepad_sid/static/js/calendar.js</div></td></tr><tr><td><div>/notepad_sid/static/js/web2py.js</div></td></tr><tr><td><div>/notepad_sid/static/css/create.css</div></td></tr></table></div></td></tr><tr><td style="font-weight:bold;vertical-align:top;">flash</td><td style="vertical-align:top;">:</td><td><div></div></td></tr><tr><td style="font-weight:bold;vertical-align:top;">generic_patterns</td><td style="vertical-align:top;">:</td><td><div><table><tr><td><div>*</div></td></tr></table></div></td></tr><tr><td style="font-weight:bold;vertical-align:top;">google_analytics_id</td><td style="vertical-align:top;">:</td><td><div>None</div></td></tr><tr><td style="font-weight:bold;vertical-align:top;">headers</td><td style="vertical-align:top;">:</td><td><div><table><tr><td style="font-weight:bold;vertical-align:top;">X-Powered-By</td><td style="vertical-align:top;">:</td><td><div>web2py</div></td></tr></table></div></td></tr><tr><td style="font-weight:bold;vertical-align:top;">logo</td><td style="vertical-align:top;">:</td><td><div><a class="brand" href="http://www.web2py.com/"><b>web<span>2</span>py</b>&trade;&nbsp;</a></div></td></tr><tr><td style="font-weight:bold;vertical-align:top;">menu</td><td style="vertical-align:top;">:</td><td><div><table><tr><td><div><table><tr><td><div>Home</div></td></tr><tr><td><div>False</div></td></tr><tr><td><div>/notepad_sid/default/main</div></td></tr><tr><td><div><table></table></div></td></tr></table></div></td></tr><tr><td><div><table><tr><td><div><span>Contact</span></div></td></tr><tr><td><div>False</div></td></tr><tr><td><div>/notepad_sid/default/contact_us</div></td></tr></table></div></td></tr></table></div></td></tr><tr><td style="font-weight:bold;vertical-align:top;">meta</td><td style="vertical-align:top;">:</td><td><div><table><tr><td style="font-weight:bold;vertical-align:top;">author</td><td style="vertical-align:top;">:</td><td><div>Your Name &lt;you@example.com&gt;</div></td></tr><tr><td style="font-weight:bold;vertical-align:top;">description</td><td style="vertical-align:top;">:</td><td><div>a cool new app</div></td></tr><tr><td style="font-weight:bold;vertical-align:top;">generator</td><td style="vertical-align:top;">:</td><td><div>Web2py Web Framework</div></td></tr><tr><td style="font-weight:bold;vertical-align:top;">keywords</td><td style="vertical-align:top;">:</td><td><div>web2py, python, framework</div></td></tr></table></div></td></tr><tr><td style="font-weight:bold;vertical-align:top;">models_to_run</td><td style="vertical-align:top;">:</td><td><div><table><tr><td><div>^\\w+\\.py$</div></td></tr><tr><td><div>^default/\\w+\\.py$</div></td></tr><tr><td><div>^default/create/\\w+\\.py$</div></td></tr></table></div></td></tr><tr><td style="font-weight:bold;vertical-align:top;">postprocessing</td><td style="vertical-align:top;">:</td><td><div><table></table></div></td></tr><tr><td style="font-weight:bold;vertical-align:top;">session_client</td><td style="vertical-align:top;">:</td><td><div>127.0.0.1</div></td></tr><tr><td style="font-weight:bold;vertical-align:top;">session_cookie_compression_level</td><td style="vertical-align:top;">:</td><td><div>None</div></td></tr><tr><td style="font-weight:bold;vertical-align:top;">session_cookie_expires</td><td style="vertical-align:top;">:</td><td><div>None</div></td></tr><tr><td style="font-weight:bold;vertical-align:top;">session_cookie_key</td><td style="vertical-align:top;">:</td><td><div>None</div></td></tr><tr><td style="font-weight:bold;vertical-align:top;">session_data_name</td><td style="vertical-align:top;">:</td><td><div>session_data_notepad_sid</div></td></tr><tr><td style="font-weight:bold;vertical-align:top;">session_file</td><td style="vertical-align:top;">:</td><td><div>&lt;open file &#x27;/home/kushal/skynote/web2py/applications/notepad_sid/sessions/127.0.0.1-7281aa81-26e9-4f64-9947-863781b09a32&#x27;, mode &#x27;rb+&#x27; at 0xb5bca020&gt;</div></td></tr><tr><td style="font-weight:bold;vertical-align:top;">session_filename</td><td style="vertical-align:top;">:</td><td><div>/home/kushal/skynote/web2py/applications/notepad_sid/sessions/127.0.0.1-7281aa81-26e9-4f64-9947-863781b09a32</div></td></tr><tr><td style="font-weight:bold;vertical-align:top;">session_hash</td><td style="vertical-align:top;">:</td><td><div>1dee5975789c17145c3970a175061b76</div></td></tr><tr><td style="font-weight:bold;vertical-align:top;">session_id</td><td style="vertical-align:top;">:</td><td><div>127.0.0.1-7281aa81-26e9-4f64-9947-863781b09a32</div></td></tr><tr><td style="font-weight:bold;vertical-align:top;">session_id_name</td><td style="vertical-align:top;">:</td><td><div>session_id_notepad_sid</div></td></tr><tr><td style="font-weight:bold;vertical-align:top;">session_locked</td><td style="vertical-align:top;">:</td><td><div>True</div></td></tr><tr><td style="font-weight:bold;vertical-align:top;">session_masterapp</td><td style="vertical-align:top;">:</td><td><div>notepad_sid</div></td></tr><tr><td style="font-weight:bold;vertical-align:top;">session_new</td><td style="vertical-align:top;">:</td><td><div>False</div></td></tr><tr><td style="font-weight:bold;vertical-align:top;">session_storage_type</td><td style="vertical-align:top;">:</td><td><div>file</div></td></tr><tr><td style="font-weight:bold;vertical-align:top;">status</td><td style="vertical-align:top;">:</td><td><div>200</div></td></tr><tr><td style="font-weight:bold;vertical-align:top;">subtitle</td><td style="vertical-align:top;">:</td><td><div></div></td></tr><tr><td style="font-weight:bold;vertical-align:top;">title</td><td style="vertical-align:top;">:</td><td><div>Notepad Sid</div></td></tr><tr><td style="font-weight:bold;vertical-align:top;">view</td><td style="vertical-align:top;">:</td><td><div>default/create.html</div></td></tr></table></div>'
tRp124
sS'locals'
p125
(dp126
S'Service'
p127
S"<class 'gluon.tools.Service'>"
p128
sS'OBJECT'
p129
S"<class 'gluon.html.OBJECT'>"
p130
sS'SQLDB'
p131
S"<class 'gluon.dal.DAL'>"
p132
sg117
S"<Storage {'_user_agent': <Storage {'os': <Storag...version': '33.0.1750.117', 'name': 'Chrome'}>}>}>"
p133
sS'LINK'
p134
S"<class 'gluon.html.LINK'>"
p135
sS'BR'
p136
S"<class 'gluon.html.BR'>"
p137
sS'local_import'
p138
S'<function <lambda>>'
p139
sS'OPTGROUP'
p140
S"<class 'gluon.html.OPTGROUP'>"
p141
sS'__package__'
p142
S'None'
p143
sS'PRE'
p144
S"<class 'gluon.html.PRE'>"
p145
sS'IS_INT_IN_RANGE'
p146
S"<class 'gluon.validators.IS_INT_IN_RANGE'>"
p147
sS'left_sidebar_enabled'
p148
S'False'
p149
sS'IS_LOWER'
p150
S"<class 'gluon.validators.IS_LOWER'>"
p151
sS'IS_STRONG'
p152
S"<class 'gluon.validators.IS_STRONG'>"
p153
sS'cache'
p154
S'<gluon.cache.Cache object>'
p155
sS'IS_IN_DB'
p156
S"<class 'gluon.validators.IS_IN_DB'>"
p157
sS'TAG'
p158
S'<gluon.html.__TAG__ object>'
p159
sS'SQLField'
p160
S"<class 'gluon.dal.Field'>"
p161
sS'mail'
p162
S'<gluon.tools.Mail object>'
p163
sS'BODY'
p164
S"<class 'gluon.html.BODY'>"
p165
sS'IS_DATE_IN_RANGE'
p166
S"<class 'gluon.validators.IS_DATE_IN_RANGE'>"
p167
sS'IFRAME'
p168
S"<class 'gluon.html.IFRAME'>"
p169
sS'URL'
p170
S'<function URL>'
p171
sS'__file__'
p172
S"'/home/kushal/skynote/web2py/applications/notepad_sid/views/default/create.html'"
p173
sS'db'
p174
S'<DAL uri="sqlite://storage.sqlite">'
p175
sS'auth'
p176
S'<gluon.tools.Auth object>'
p177
sS'P'
S"<class 'gluon.html.P'>"
p178
sS'TFOOT'
p179
S"<class 'gluon.html.TFOOT'>"
p180
sS'XHTML'
p181
S"<class 'gluon.html.XHTML'>"
p182
sS'ON'
p183
S'True'
p184
sS'OL'
p185
S"<class 'gluon.html.OL'>"
p186
sS'TEXTAREA'
p187
S"<class 'gluon.html.TEXTAREA'>"
p188
sS'MENU'
p189
S"<class 'gluon.html.MENU'>"
p190
sS'IS_IMAGE'
p191
S"<class 'gluon.validators.IS_IMAGE'>"
p192
sS'x'
S"'Sky-Note'"
p193
sS'EM'
p194
S"<class 'gluon.html.EM'>"
p195
sS'CODE'
p196
S"<class 'gluon.html.CODE'>"
p197
sS'HTTP'
p198
S"<class 'gluon.http.HTTP'>"
p199
sS'HR'
p200
S"<class 'gluon.html.HR'>"
p201
sS'IS_DATETIME'
p202
S"<class 'gluon.validators.IS_DATETIME'>"
p203
sS'STYLE'
p204
S"<class 'gluon.html.STYLE'>"
p205
sS'LABEL'
p206
S"<class 'gluon.html.LABEL'>"
p207
sS'CLEANUP'
p208
S"<class 'gluon.validators.CLEANUP'>"
p209
sS'plugins'
p210
S'<gluon.tools.PluginManager object>'
p211
sS'SELECT'
p212
S"<class 'gluon.html.SELECT'>"
p213
sS'use_janrain'
p214
S'<function use_janrain>'
p215
sS'CENTER'
p216
S"<class 'gluon.html.CENTER'>"
p217
sS'prettydate'
p218
S'<function prettydate>'
p219
sS'Crud'
p220
S"<class 'gluon.tools.Crud'>"
p221
sS'Auth'
p222
S"<class 'gluon.tools.Auth'>"
p223
sS'DEVELOPMENT_MENU'
p224
g184
sS'__builtins__'
p225
S"{'ArithmeticError': <type 'exceptions.ArithmeticError'>, 'AssertionError': <type 'exceptions.AssertionError'>, 'AttributeError': <type 'exceptions.AttributeError'>, 'BaseException': <type 'exceptions.BaseException'>, 'BufferError': <type 'exceptions.BufferError'>, 'BytesWarning': <type 'exceptions.BytesWarning'>, 'DeprecationWarning': <type 'exceptions.DeprecationWarning'>, 'EOFError': <type 'exceptions.EOFError'>, 'Ellipsis': Ellipsis, 'EnvironmentError': <type 'exceptions.EnvironmentError'>, ...}"
p226
sS'HTML'
p227
S"<class 'gluon.html.HTML'>"
p228
sS'SQLFORM'
p229
S"<class 'gluon.sqlhtml.SQLFORM'>"
p230
sS'LOAD'
p231
S'<function LOAD>'
p232
sS'redirect'
p233
S'<function redirect>'
p234
sS'FIELDSET'
p235
S"<class 'gluon.html.FIELDSET'>"
p236
sS'IS_EQUAL_TO'
p237
S"<class 'gluon.validators.IS_EQUAL_TO'>"
p238
sS'embed64'
p239
S'<function embed64>'
p240
sS'IS_LIST_OF'
p241
S"<class 'gluon.validators.IS_LIST_OF'>"
p242
sS'INPUT'
p243
S"<class 'gluon.html.INPUT'>"
p244
sS'EMBED'
p245
S"<class 'gluon.html.EMBED'>"
p246
sS'_'
S'<function _>'
p247
sS'H2'
p248
S"<class 'gluon.html.H2'>"
p249
sS'H3'
p250
S"<class 'gluon.html.H3'>"
p251
sS'BUTTON'
p252
S"<class 'gluon.html.BUTTON'>"
p253
sS'H1'
p254
S"<class 'gluon.html.H1'>"
p255
sS'H6'
p256
S"<class 'gluon.html.H6'>"
p257
sS'H4'
p258
S"<class 'gluon.html.H4'>"
p259
sS'H5'
p260
S"<class 'gluon.html.H5'>"
p261
sS'UL'
p262
S"<class 'gluon.html.UL'>"
p263
sS'IS_UPPER'
p264
S"<class 'gluon.validators.IS_UPPER'>"
p265
sS'xmlescape'
p266
S'<function xmlescape>'
p267
sS'IS_TIME'
p268
S"<class 'gluon.validators.IS_TIME'>"
p269
sS'OPTION'
p270
S"<class 'gluon.html.OPTION'>"
p271
sS'TITLE'
p272
S"<class 'gluon.html.TITLE'>"
p273
sS'CRYPT'
p274
S"<class 'gluon.validators.CRYPT'>"
p275
sS'IS_EMPTY_OR'
p276
S"<class 'gluon.validators.IS_EMPTY_OR'>"
p277
sS'MARKMIN'
p278
S"<class 'gluon.html.MARKMIN'>"
p279
sS'__name__'
p280
S"'__restricted__'"
p281
sS'STRONG'
p282
S"<class 'gluon.html.STRONG'>"
p283
sS'COL'
p284
S"<class 'gluon.html.COL'>"
p285
sS'service'
p286
S'<gluon.tools.Service object>'
p287
sS'SCRIPT'
p288
S"<class 'gluon.html.SCRIPT'>"
p289
sS'is_mobile'
p290
g149
sS'TABLE'
p291
S"<class 'gluon.html.TABLE'>"
p292
sS'IS_IPV4'
p293
S"<class 'gluon.validators.IS_IPV4'>"
p294
sS'IS_LENGTH'
p295
S"<class 'gluon.validators.IS_LENGTH'>"
p296
sS'IS_IPV6'
p297
S"<class 'gluon.validators.IS_IPV6'>"
p298
sS'XML'
p299
S"<class 'gluon.html.XML'>"
p300
sS'B'
S"<class 'gluon.html.B'>"
p301
sS'IMG'
p302
S"<class 'gluon.html.IMG'>"
p303
sS'SQLTABLE'
p304
S"<class 'gluon.sqlhtml.SQLTABLE'>"
p305
sS'IS_MATCH'
p306
S"<class 'gluon.validators.IS_MATCH'>"
p307
sS'IS_ALPHANUMERIC'
p308
S"<class 'gluon.validators.IS_ALPHANUMERIC'>"
p309
sS'SPAN'
p310
S"<class 'gluon.html.SPAN'>"
p311
sS'IS_JSON'
p312
S"<class 'gluon.validators.IS_JSON'>"
p313
sS'IS_IPADDRESS'
p314
S"<class 'gluon.validators.IS_IPADDRESS'>"
p315
sS'IS_SLUG'
p316
S"<class 'gluon.validators.IS_SLUG'>"
p317
sS'BEAUTIFY'
p318
S"<class 'gluon.html.BEAUTIFY'>"
p319
sS'META'
p320
S"<class 'gluon.html.META'>"
p321
sS'IS_DATE'
p322
S"<class 'gluon.validators.IS_DATE'>"
p323
sS'IS_EMAIL'
p324
S"<class 'gluon.validators.IS_EMAIL'>"
p325
sS'IS_NOT_EMPTY'
p326
S"<class 'gluon.validators.IS_NOT_EMPTY'>"
p327
sS'IS_FLOAT_IN_RANGE'
p328
S"<class 'gluon.validators.IS_FLOAT_IN_RANGE'>"
p329
sS'TBODY'
p330
S"<class 'gluon.html.TBODY'>"
p331
sS'CAT'
p332
S"<class 'gluon.html.CAT'>"
p333
sS'Field'
p334
S"<class 'gluon.dal.Field'>"
p335
sS'IS_LIST_OF_EMAILS'
p336
S"<class 'gluon.validators.IS_LIST_OF_EMAILS'>"
p337
sS'middle_columns'
p338
S"'span12'"
p339
sS'DIV'
p340
S"<class 'gluon.html.DIV'>"
p341
sS'LEGEND'
p342
S"<class 'gluon.html.LEGEND'>"
p343
sS'COLGROUP'
p344
S"<class 'gluon.html.COLGROUP'>"
p345
sS'DAL'
p346
S"<class 'gluon.dal.DAL'>"
p347
sS'TT'
p348
S"<class 'gluon.html.TT'>"
p349
sS'TR'
p350
S"<class 'gluon.html.TR'>"
p351
sS'LI'
p352
S"<class 'gluon.html.LI'>"
p353
sS'right_sidebar_enabled'
p354
g149
sS'TH'
p355
S"<class 'gluon.html.TH'>"
p356
sS'TD'
p357
S"<class 'gluon.html.TD'>"
p358
sS'PluginManager'
p359
S"<class 'gluon.tools.PluginManager'>"
p360
sS'IS_URL'
p361
S"<class 'gluon.validators.IS_URL'>"
p362
sS'A'
S"<class 'gluon.html.A'>"
p363
sS'HEAD'
p364
S"<class 'gluon.html.HEAD'>"
p365
sS'IS_DATETIME_IN_RANGE'
p366
S"<class 'gluon.validators.IS_DATETIME_IN_RANGE'>"
p367
sS'FORM'
p368
S"<class 'gluon.html.FORM'>"
p369
sS'I'
S"<class 'gluon.html.I'>"
p370
sS'crud'
p371
S'<gluon.tools.Crud object>'
p372
sS'IS_NOT_IN_DB'
p373
S"<class 'gluon.validators.IS_NOT_IN_DB'>"
p374
sg123
S"<Storage {'body': <cStringIO.StringO object at 0...> at 0xb5bcc994>, 'view': 'default/create.html'}>"
p375
sS'THEAD'
p376
S"<class 'gluon.html.THEAD'>"
p377
sS'ANY_OF'
p378
S"<class 'gluon.validators.ANY_OF'>"
p379
sS'IS_NULL_OR'
p380
S"<class 'gluon.validators.IS_EMPTY_OR'>"
p381
sg56
S"<Storage {'_vars': None, 'function': 'create', '...ushal/skynote/web2py/applications/notepad_sid/'}>"
p382
sS'IS_EXPR'
p383
S"<class 'gluon.validators.IS_EXPR'>"
p384
sS'T'
S'<gluon.languages.translator object>'
p385
sS'IS_IN_SET'
p386
S"<class 'gluon.validators.IS_IN_SET'>"
p387
sS'IS_UPLOAD_FILENAME'
p388
S"<class 'gluon.validators.IS_UPLOAD_FILENAME'>"
p389
sS'IS_DECIMAL_IN_RANGE'
p390
S"<class 'gluon.validators.IS_DECIMAL_IN_RANGE'>"
p391
sssS'traceback'
p392
S'Traceback (most recent call last):\n  File "/home/kushal/skynote/web2py/gluon/restricted.py", line 217, in restricted\n    exec ccode in environment\n  File "/home/kushal/skynote/web2py/applications/notepad_sid/views/default/create.html", line 93, in <module>\nAttributeError: \'NoneType\' object has no attribute \'id\'\n'
p393
s.